
bomb:     file format elf64-x86-64


Disassembly of section .init:

0000000000400b50 <_init>:
  400b50:	48 83 ec 08          	sub    $0x8,%rsp
  400b54:	48 8b 05 9d 34 20 00 	mov    0x20349d(%rip),%rax        # 603ff8 <_DYNAMIC+0x1d0>
  400b5b:	48 85 c0             	test   %rax,%rax
  400b5e:	74 05                	je     400b65 <_init+0x15>
  400b60:	e8 1b 01 00 00       	callq  400c80 <__gmon_start__@plt>
  400b65:	48 83 c4 08          	add    $0x8,%rsp
  400b69:	c3                   	retq   

Disassembly of section .plt:

0000000000400b70 <getenv@plt-0x10>:
  400b70:	ff 35 92 34 20 00    	pushq  0x203492(%rip)        # 604008 <_GLOBAL_OFFSET_TABLE_+0x8>
  400b76:	ff 25 94 34 20 00    	jmpq   *0x203494(%rip)        # 604010 <_GLOBAL_OFFSET_TABLE_+0x10>
  400b7c:	0f 1f 40 00          	nopl   0x0(%rax)

0000000000400b80 <getenv@plt>:
  400b80:	ff 25 92 34 20 00    	jmpq   *0x203492(%rip)        # 604018 <_GLOBAL_OFFSET_TABLE_+0x18>
  400b86:	68 00 00 00 00       	pushq  $0x0
  400b8b:	e9 e0 ff ff ff       	jmpq   400b70 <_init+0x20>

0000000000400b90 <strcasecmp@plt>:
  400b90:	ff 25 8a 34 20 00    	jmpq   *0x20348a(%rip)        # 604020 <_GLOBAL_OFFSET_TABLE_+0x20>
  400b96:	68 01 00 00 00       	pushq  $0x1
  400b9b:	e9 d0 ff ff ff       	jmpq   400b70 <_init+0x20>

0000000000400ba0 <__errno_location@plt>:
  400ba0:	ff 25 82 34 20 00    	jmpq   *0x203482(%rip)        # 604028 <_GLOBAL_OFFSET_TABLE_+0x28>
  400ba6:	68 02 00 00 00       	pushq  $0x2
  400bab:	e9 c0 ff ff ff       	jmpq   400b70 <_init+0x20>

0000000000400bb0 <strcpy@plt>:
  400bb0:	ff 25 7a 34 20 00    	jmpq   *0x20347a(%rip)        # 604030 <_GLOBAL_OFFSET_TABLE_+0x30>
  400bb6:	68 03 00 00 00       	pushq  $0x3
  400bbb:	e9 b0 ff ff ff       	jmpq   400b70 <_init+0x20>

0000000000400bc0 <puts@plt>:
  400bc0:	ff 25 72 34 20 00    	jmpq   *0x203472(%rip)        # 604038 <_GLOBAL_OFFSET_TABLE_+0x38>
  400bc6:	68 04 00 00 00       	pushq  $0x4
  400bcb:	e9 a0 ff ff ff       	jmpq   400b70 <_init+0x20>

0000000000400bd0 <write@plt>:
  400bd0:	ff 25 6a 34 20 00    	jmpq   *0x20346a(%rip)        # 604040 <_GLOBAL_OFFSET_TABLE_+0x40>
  400bd6:	68 05 00 00 00       	pushq  $0x5
  400bdb:	e9 90 ff ff ff       	jmpq   400b70 <_init+0x20>

0000000000400be0 <__stack_chk_fail@plt>:
  400be0:	ff 25 62 34 20 00    	jmpq   *0x203462(%rip)        # 604048 <_GLOBAL_OFFSET_TABLE_+0x48>
  400be6:	68 06 00 00 00       	pushq  $0x6
  400beb:	e9 80 ff ff ff       	jmpq   400b70 <_init+0x20>

0000000000400bf0 <alarm@plt>:
  400bf0:	ff 25 5a 34 20 00    	jmpq   *0x20345a(%rip)        # 604050 <_GLOBAL_OFFSET_TABLE_+0x50>
  400bf6:	68 07 00 00 00       	pushq  $0x7
  400bfb:	e9 70 ff ff ff       	jmpq   400b70 <_init+0x20>

0000000000400c00 <close@plt>:
  400c00:	ff 25 52 34 20 00    	jmpq   *0x203452(%rip)        # 604058 <_GLOBAL_OFFSET_TABLE_+0x58>
  400c06:	68 08 00 00 00       	pushq  $0x8
  400c0b:	e9 60 ff ff ff       	jmpq   400b70 <_init+0x20>

0000000000400c10 <read@plt>:
  400c10:	ff 25 4a 34 20 00    	jmpq   *0x20344a(%rip)        # 604060 <_GLOBAL_OFFSET_TABLE_+0x60>
  400c16:	68 09 00 00 00       	pushq  $0x9
  400c1b:	e9 50 ff ff ff       	jmpq   400b70 <_init+0x20>

0000000000400c20 <__libc_start_main@plt>:
  400c20:	ff 25 42 34 20 00    	jmpq   *0x203442(%rip)        # 604068 <_GLOBAL_OFFSET_TABLE_+0x68>
  400c26:	68 0a 00 00 00       	pushq  $0xa
  400c2b:	e9 40 ff ff ff       	jmpq   400b70 <_init+0x20>

0000000000400c30 <fgets@plt>:
  400c30:	ff 25 3a 34 20 00    	jmpq   *0x20343a(%rip)        # 604070 <_GLOBAL_OFFSET_TABLE_+0x70>
  400c36:	68 0b 00 00 00       	pushq  $0xb
  400c3b:	e9 30 ff ff ff       	jmpq   400b70 <_init+0x20>

0000000000400c40 <signal@plt>:
  400c40:	ff 25 32 34 20 00    	jmpq   *0x203432(%rip)        # 604078 <_GLOBAL_OFFSET_TABLE_+0x78>
  400c46:	68 0c 00 00 00       	pushq  $0xc
  400c4b:	e9 20 ff ff ff       	jmpq   400b70 <_init+0x20>

0000000000400c50 <gethostbyname@plt>:
  400c50:	ff 25 2a 34 20 00    	jmpq   *0x20342a(%rip)        # 604080 <_GLOBAL_OFFSET_TABLE_+0x80>
  400c56:	68 0d 00 00 00       	pushq  $0xd
  400c5b:	e9 10 ff ff ff       	jmpq   400b70 <_init+0x20>

0000000000400c60 <__memmove_chk@plt>:
  400c60:	ff 25 22 34 20 00    	jmpq   *0x203422(%rip)        # 604088 <_GLOBAL_OFFSET_TABLE_+0x88>
  400c66:	68 0e 00 00 00       	pushq  $0xe
  400c6b:	e9 00 ff ff ff       	jmpq   400b70 <_init+0x20>

0000000000400c70 <__memcpy_chk@plt>:
  400c70:	ff 25 1a 34 20 00    	jmpq   *0x20341a(%rip)        # 604090 <_GLOBAL_OFFSET_TABLE_+0x90>
  400c76:	68 0f 00 00 00       	pushq  $0xf
  400c7b:	e9 f0 fe ff ff       	jmpq   400b70 <_init+0x20>

0000000000400c80 <__gmon_start__@plt>:
  400c80:	ff 25 12 34 20 00    	jmpq   *0x203412(%rip)        # 604098 <_GLOBAL_OFFSET_TABLE_+0x98>
  400c86:	68 10 00 00 00       	pushq  $0x10
  400c8b:	e9 e0 fe ff ff       	jmpq   400b70 <_init+0x20>

0000000000400c90 <strtol@plt>:
  400c90:	ff 25 0a 34 20 00    	jmpq   *0x20340a(%rip)        # 6040a0 <_GLOBAL_OFFSET_TABLE_+0xa0>
  400c96:	68 11 00 00 00       	pushq  $0x11
  400c9b:	e9 d0 fe ff ff       	jmpq   400b70 <_init+0x20>

0000000000400ca0 <fflush@plt>:
  400ca0:	ff 25 02 34 20 00    	jmpq   *0x203402(%rip)        # 6040a8 <_GLOBAL_OFFSET_TABLE_+0xa8>
  400ca6:	68 12 00 00 00       	pushq  $0x12
  400cab:	e9 c0 fe ff ff       	jmpq   400b70 <_init+0x20>

0000000000400cb0 <__isoc99_sscanf@plt>:
  400cb0:	ff 25 fa 33 20 00    	jmpq   *0x2033fa(%rip)        # 6040b0 <_GLOBAL_OFFSET_TABLE_+0xb0>
  400cb6:	68 13 00 00 00       	pushq  $0x13
  400cbb:	e9 b0 fe ff ff       	jmpq   400b70 <_init+0x20>

0000000000400cc0 <__printf_chk@plt>:
  400cc0:	ff 25 f2 33 20 00    	jmpq   *0x2033f2(%rip)        # 6040b8 <_GLOBAL_OFFSET_TABLE_+0xb8>
  400cc6:	68 14 00 00 00       	pushq  $0x14
  400ccb:	e9 a0 fe ff ff       	jmpq   400b70 <_init+0x20>

0000000000400cd0 <fopen@plt>:
  400cd0:	ff 25 ea 33 20 00    	jmpq   *0x2033ea(%rip)        # 6040c0 <_GLOBAL_OFFSET_TABLE_+0xc0>
  400cd6:	68 15 00 00 00       	pushq  $0x15
  400cdb:	e9 90 fe ff ff       	jmpq   400b70 <_init+0x20>

0000000000400ce0 <gethostname@plt>:
  400ce0:	ff 25 e2 33 20 00    	jmpq   *0x2033e2(%rip)        # 6040c8 <_GLOBAL_OFFSET_TABLE_+0xc8>
  400ce6:	68 16 00 00 00       	pushq  $0x16
  400ceb:	e9 80 fe ff ff       	jmpq   400b70 <_init+0x20>

0000000000400cf0 <exit@plt>:
  400cf0:	ff 25 da 33 20 00    	jmpq   *0x2033da(%rip)        # 6040d0 <_GLOBAL_OFFSET_TABLE_+0xd0>
  400cf6:	68 17 00 00 00       	pushq  $0x17
  400cfb:	e9 70 fe ff ff       	jmpq   400b70 <_init+0x20>

0000000000400d00 <connect@plt>:
  400d00:	ff 25 d2 33 20 00    	jmpq   *0x2033d2(%rip)        # 6040d8 <_GLOBAL_OFFSET_TABLE_+0xd8>
  400d06:	68 18 00 00 00       	pushq  $0x18
  400d0b:	e9 60 fe ff ff       	jmpq   400b70 <_init+0x20>

0000000000400d10 <__fprintf_chk@plt>:
  400d10:	ff 25 ca 33 20 00    	jmpq   *0x2033ca(%rip)        # 6040e0 <_GLOBAL_OFFSET_TABLE_+0xe0>
  400d16:	68 19 00 00 00       	pushq  $0x19
  400d1b:	e9 50 fe ff ff       	jmpq   400b70 <_init+0x20>

0000000000400d20 <sleep@plt>:
  400d20:	ff 25 c2 33 20 00    	jmpq   *0x2033c2(%rip)        # 6040e8 <_GLOBAL_OFFSET_TABLE_+0xe8>
  400d26:	68 1a 00 00 00       	pushq  $0x1a
  400d2b:	e9 40 fe ff ff       	jmpq   400b70 <_init+0x20>

0000000000400d30 <__ctype_b_loc@plt>:
  400d30:	ff 25 ba 33 20 00    	jmpq   *0x2033ba(%rip)        # 6040f0 <_GLOBAL_OFFSET_TABLE_+0xf0>
  400d36:	68 1b 00 00 00       	pushq  $0x1b
  400d3b:	e9 30 fe ff ff       	jmpq   400b70 <_init+0x20>

0000000000400d40 <__sprintf_chk@plt>:
  400d40:	ff 25 b2 33 20 00    	jmpq   *0x2033b2(%rip)        # 6040f8 <_GLOBAL_OFFSET_TABLE_+0xf8>
  400d46:	68 1c 00 00 00       	pushq  $0x1c
  400d4b:	e9 20 fe ff ff       	jmpq   400b70 <_init+0x20>

0000000000400d50 <socket@plt>:
  400d50:	ff 25 aa 33 20 00    	jmpq   *0x2033aa(%rip)        # 604100 <_GLOBAL_OFFSET_TABLE_+0x100>
  400d56:	68 1d 00 00 00       	pushq  $0x1d
  400d5b:	e9 10 fe ff ff       	jmpq   400b70 <_init+0x20>

Disassembly of section .text:

0000000000400d60 <_start>:
  400d60:	31 ed                	xor    %ebp,%ebp
  400d62:	49 89 d1             	mov    %rdx,%r9
  400d65:	5e                   	pop    %rsi
  400d66:	48 89 e2             	mov    %rsp,%rdx
  400d69:	48 83 e4 f0          	and    $0xfffffffffffffff0,%rsp
  400d6d:	50                   	push   %rax
  400d6e:	54                   	push   %rsp
  400d6f:	49 c7 c0 c0 25 40 00 	mov    $0x4025c0,%r8
  400d76:	48 c7 c1 50 25 40 00 	mov    $0x402550,%rcx
  400d7d:	48 c7 c7 56 0e 40 00 	mov    $0x400e56,%rdi
  400d84:	e8 97 fe ff ff       	callq  400c20 <__libc_start_main@plt>
  400d89:	f4                   	hlt    
  400d8a:	66 0f 1f 44 00 00    	nopw   0x0(%rax,%rax,1)

0000000000400d90 <deregister_tm_clones>:
  400d90:	b8 07 4c 60 00       	mov    $0x604c07,%eax
  400d95:	55                   	push   %rbp
  400d96:	48 2d 00 4c 60 00    	sub    $0x604c00,%rax
  400d9c:	48 83 f8 0e          	cmp    $0xe,%rax
  400da0:	48 89 e5             	mov    %rsp,%rbp
  400da3:	76 1b                	jbe    400dc0 <deregister_tm_clones+0x30>
  400da5:	b8 00 00 00 00       	mov    $0x0,%eax
  400daa:	48 85 c0             	test   %rax,%rax
  400dad:	74 11                	je     400dc0 <deregister_tm_clones+0x30>
  400daf:	5d                   	pop    %rbp
  400db0:	bf 00 4c 60 00       	mov    $0x604c00,%edi
  400db5:	ff e0                	jmpq   *%rax
  400db7:	66 0f 1f 84 00 00 00 	nopw   0x0(%rax,%rax,1)
  400dbe:	00 00 
  400dc0:	5d                   	pop    %rbp
  400dc1:	c3                   	retq   
  400dc2:	66 66 66 66 66 2e 0f 	data32 data32 data32 data32 nopw %cs:0x0(%rax,%rax,1)
  400dc9:	1f 84 00 00 00 00 00 

0000000000400dd0 <register_tm_clones>:
  400dd0:	be 00 4c 60 00       	mov    $0x604c00,%esi
  400dd5:	55                   	push   %rbp
  400dd6:	48 81 ee 00 4c 60 00 	sub    $0x604c00,%rsi
  400ddd:	48 c1 fe 03          	sar    $0x3,%rsi
  400de1:	48 89 e5             	mov    %rsp,%rbp
  400de4:	48 89 f0             	mov    %rsi,%rax
  400de7:	48 c1 e8 3f          	shr    $0x3f,%rax
  400deb:	48 01 c6             	add    %rax,%rsi
  400dee:	48 d1 fe             	sar    %rsi
  400df1:	74 15                	je     400e08 <register_tm_clones+0x38>
  400df3:	b8 00 00 00 00       	mov    $0x0,%eax
  400df8:	48 85 c0             	test   %rax,%rax
  400dfb:	74 0b                	je     400e08 <register_tm_clones+0x38>
  400dfd:	5d                   	pop    %rbp
  400dfe:	bf 00 4c 60 00       	mov    $0x604c00,%edi
  400e03:	ff e0                	jmpq   *%rax
  400e05:	0f 1f 00             	nopl   (%rax)
  400e08:	5d                   	pop    %rbp
  400e09:	c3                   	retq   
  400e0a:	66 0f 1f 44 00 00    	nopw   0x0(%rax,%rax,1)

0000000000400e10 <__do_global_dtors_aux>:
  400e10:	80 3d 01 3e 20 00 00 	cmpb   $0x0,0x203e01(%rip)        # 604c18 <completed.7259>
  400e17:	75 11                	jne    400e2a <__do_global_dtors_aux+0x1a>
  400e19:	55                   	push   %rbp
  400e1a:	48 89 e5             	mov    %rsp,%rbp
  400e1d:	e8 6e ff ff ff       	callq  400d90 <deregister_tm_clones>
  400e22:	5d                   	pop    %rbp
  400e23:	c6 05 ee 3d 20 00 01 	movb   $0x1,0x203dee(%rip)        # 604c18 <completed.7259>
  400e2a:	f3 c3                	repz retq 
  400e2c:	0f 1f 40 00          	nopl   0x0(%rax)

0000000000400e30 <frame_dummy>:
  400e30:	bf 20 3e 60 00       	mov    $0x603e20,%edi
  400e35:	48 83 3f 00          	cmpq   $0x0,(%rdi)
  400e39:	75 05                	jne    400e40 <frame_dummy+0x10>
  400e3b:	eb 93                	jmp    400dd0 <register_tm_clones>
  400e3d:	0f 1f 00             	nopl   (%rax)
  400e40:	b8 00 00 00 00       	mov    $0x0,%eax
  400e45:	48 85 c0             	test   %rax,%rax
  400e48:	74 f1                	je     400e3b <frame_dummy+0xb>
  400e4a:	55                   	push   %rbp
  400e4b:	48 89 e5             	mov    %rsp,%rbp
  400e4e:	ff d0                	callq  *%rax
  400e50:	5d                   	pop    %rbp
  400e51:	e9 7a ff ff ff       	jmpq   400dd0 <register_tm_clones>

0000000000400e56 <main>:
  400e56:	53                   	push   %rbx
  400e57:	83 ff 01             	cmp    $0x1,%edi
  400e5a:	75 10                	jne    400e6c <main+0x16>
  400e5c:	48 8b 05 a5 3d 20 00 	mov    0x203da5(%rip),%rax        # 604c08 <stdin@@GLIBC_2.2.5>
  400e63:	48 89 05 b6 3d 20 00 	mov    %rax,0x203db6(%rip)        # 604c20 <infile>
  400e6a:	eb 63                	jmp    400ecf <main+0x79>
  400e6c:	48 89 f3             	mov    %rsi,%rbx
  400e6f:	83 ff 02             	cmp    $0x2,%edi
  400e72:	75 3a                	jne    400eae <main+0x58>
  400e74:	48 8b 7e 08          	mov    0x8(%rsi),%rdi
  400e78:	be 04 26 40 00       	mov    $0x402604,%esi
  400e7d:	e8 4e fe ff ff       	callq  400cd0 <fopen@plt>
  400e82:	48 89 05 97 3d 20 00 	mov    %rax,0x203d97(%rip)        # 604c20 <infile>
  400e89:	48 85 c0             	test   %rax,%rax
  400e8c:	75 41                	jne    400ecf <main+0x79>
  400e8e:	48 8b 4b 08          	mov    0x8(%rbx),%rcx
  400e92:	48 8b 13             	mov    (%rbx),%rdx
  400e95:	be 06 26 40 00       	mov    $0x402606,%esi
  400e9a:	bf 01 00 00 00       	mov    $0x1,%edi
  400e9f:	e8 1c fe ff ff       	callq  400cc0 <__printf_chk@plt>
  400ea4:	bf 08 00 00 00       	mov    $0x8,%edi
  400ea9:	e8 42 fe ff ff       	callq  400cf0 <exit@plt>
  400eae:	48 8b 16             	mov    (%rsi),%rdx
  400eb1:	be 23 26 40 00       	mov    $0x402623,%esi
  400eb6:	bf 01 00 00 00       	mov    $0x1,%edi
  400ebb:	b8 00 00 00 00       	mov    $0x0,%eax
  400ec0:	e8 fb fd ff ff       	callq  400cc0 <__printf_chk@plt>
  400ec5:	bf 08 00 00 00       	mov    $0x8,%edi
  400eca:	e8 21 fe ff ff       	callq  400cf0 <exit@plt>
  400ecf:	e8 fe 05 00 00       	callq  4014d2 <initialize_bomb>
  400ed4:	bf 88 26 40 00       	mov    $0x402688,%edi
  400ed9:	e8 e2 fc ff ff       	callq  400bc0 <puts@plt>
  400ede:	bf c8 26 40 00       	mov    $0x4026c8,%edi
  400ee3:	e8 d8 fc ff ff       	callq  400bc0 <puts@plt>
  400ee8:	e8 ac 08 00 00       	callq  401799 <read_line>
  400eed:	48 89 c7             	mov    %rax,%rdi
  400ef0:	e8 98 00 00 00       	callq  400f8d <phase_1>
  400ef5:	e8 c7 09 00 00       	callq  4018c1 <phase_defused>
  400efa:	bf f8 26 40 00       	mov    $0x4026f8,%edi
  400eff:	e8 bc fc ff ff       	callq  400bc0 <puts@plt>
  400f04:	e8 90 08 00 00       	callq  401799 <read_line>
  400f09:	48 89 c7             	mov    %rax,%rdi
  400f0c:	e8 98 00 00 00       	callq  400fa9 <phase_2>
  400f11:	e8 ab 09 00 00       	callq  4018c1 <phase_defused>
  400f16:	bf 3d 26 40 00       	mov    $0x40263d,%edi
  400f1b:	e8 a0 fc ff ff       	callq  400bc0 <puts@plt>
  400f20:	e8 74 08 00 00       	callq  401799 <read_line>
  400f25:	48 89 c7             	mov    %rax,%rdi
  400f28:	e8 e6 00 00 00       	callq  401013 <phase_3>
  400f2d:	e8 8f 09 00 00       	callq  4018c1 <phase_defused>
  400f32:	bf 5b 26 40 00       	mov    $0x40265b,%edi
  400f37:	e8 84 fc ff ff       	callq  400bc0 <puts@plt>
  400f3c:	e8 58 08 00 00       	callq  401799 <read_line>
  400f41:	48 89 c7             	mov    %rax,%rdi
  400f44:	e8 d4 01 00 00       	callq  40111d <phase_4>
  400f49:	e8 73 09 00 00       	callq  4018c1 <phase_defused>
  400f4e:	bf 28 27 40 00       	mov    $0x402728,%edi
  400f53:	e8 68 fc ff ff       	callq  400bc0 <puts@plt>
  400f58:	e8 3c 08 00 00       	callq  401799 <read_line>
  400f5d:	48 89 c7             	mov    %rax,%rdi
  400f60:	e8 25 02 00 00       	callq  40118a <phase_5>
  400f65:	e8 57 09 00 00       	callq  4018c1 <phase_defused>
  400f6a:	bf 6a 26 40 00       	mov    $0x40266a,%edi
  400f6f:	e8 4c fc ff ff       	callq  400bc0 <puts@plt>
  400f74:	e8 20 08 00 00       	callq  401799 <read_line>
  400f79:	48 89 c7             	mov    %rax,%rdi
  400f7c:	e8 95 02 00 00       	callq  401216 <phase_6>
  400f81:	e8 3b 09 00 00       	callq  4018c1 <phase_defused>
  400f86:	b8 00 00 00 00       	mov    $0x0,%eax
  400f8b:	5b                   	pop    %rbx
  400f8c:	c3                   	retq   

0000000000400f8d <phase_1>:
  400f8d:	48 83 ec 08          	sub    $0x8,%rsp
  400f91:	be 50 27 40 00       	mov    $0x402750,%esi
  400f96:	e8 d0 04 00 00       	callq  40146b <strings_not_equal>
  400f9b:	85 c0                	test   %eax,%eax
  400f9d:	74 05                	je     400fa4 <phase_1+0x17>
  400f9f:	e8 80 07 00 00       	callq  401724 <explode_bomb>
  400fa4:	48 83 c4 08          	add    $0x8,%rsp
  400fa8:	c3                   	retq   

0000000000400fa9 <phase_2>:
  400fa9:	55                   	push   %rbp
  400faa:	53                   	push   %rbx
  400fab:	48 83 ec 28          	sub    $0x28,%rsp
  400faf:	64 48 8b 04 25 28 00 	mov    %fs:0x28,%rax
  400fb6:	00 00 
  400fb8:	48 89 44 24 18       	mov    %rax,0x18(%rsp)
  400fbd:	31 c0                	xor    %eax,%eax
  400fbf:	48 89 e6             	mov    %rsp,%rsi
  400fc2:	e8 93 07 00 00       	callq  40175a <read_six_numbers>
  400fc7:	83 3c 24 01          	cmpl   $0x1,(%rsp)
  400fcb:	74 20                	je     400fed <phase_2+0x44>
  400fcd:	e8 52 07 00 00       	callq  401724 <explode_bomb>
  400fd2:	eb 19                	jmp    400fed <phase_2+0x44>
  400fd4:	8b 03                	mov    (%rbx),%eax
  400fd6:	01 c0                	add    %eax,%eax
  400fd8:	39 43 04             	cmp    %eax,0x4(%rbx)
  400fdb:	74 05                	je     400fe2 <phase_2+0x39>
  400fdd:	e8 42 07 00 00       	callq  401724 <explode_bomb>
  400fe2:	48 83 c3 04          	add    $0x4,%rbx
  400fe6:	48 39 eb             	cmp    %rbp,%rbx
  400fe9:	75 e9                	jne    400fd4 <phase_2+0x2b>
  400feb:	eb 0a                	jmp    400ff7 <phase_2+0x4e>
  400fed:	48 89 e3             	mov    %rsp,%rbx
  400ff0:	48 8d 6c 24 14       	lea    0x14(%rsp),%rbp
  400ff5:	eb dd                	jmp    400fd4 <phase_2+0x2b>
  400ff7:	48 8b 44 24 18       	mov    0x18(%rsp),%rax
  400ffc:	64 48 33 04 25 28 00 	xor    %fs:0x28,%rax
  401003:	00 00 
  401005:	74 05                	je     40100c <phase_2+0x63>
  401007:	e8 d4 fb ff ff       	callq  400be0 <__stack_chk_fail@plt>
  40100c:	48 83 c4 28          	add    $0x28,%rsp
  401010:	5b                   	pop    %rbx
  401011:	5d                   	pop    %rbp
  401012:	c3                   	retq   

0000000000401013 <phase_3>:
  401013:	48 83 ec 18          	sub    $0x18,%rsp
  401017:	64 48 8b 04 25 28 00 	mov    %fs:0x28,%rax
  40101e:	00 00 
  401020:	48 89 44 24 08       	mov    %rax,0x8(%rsp)
  401025:	31 c0                	xor    %eax,%eax
  401027:	48 8d 4c 24 04       	lea    0x4(%rsp),%rcx
  40102c:	48 89 e2             	mov    %rsp,%rdx
  40102f:	be 55 2a 40 00       	mov    $0x402a55,%esi
  401034:	e8 77 fc ff ff       	callq  400cb0 <__isoc99_sscanf@plt>
  401039:	83 f8 01             	cmp    $0x1,%eax
  40103c:	7f 05                	jg     401043 <phase_3+0x30>
  40103e:	e8 e1 06 00 00       	callq  401724 <explode_bomb>
  401043:	83 3c 24 07          	cmpl   $0x7,(%rsp)
  401047:	77 65                	ja     4010ae <phase_3+0x9b>
  401049:	8b 04 24             	mov    (%rsp),%eax
  40104c:	ff 24 c5 c0 27 40 00 	jmpq   *0x4027c0(,%rax,8)
  401053:	b8 20 01 00 00       	mov    $0x120,%eax
  401058:	eb 05                	jmp    40105f <phase_3+0x4c>
  40105a:	b8 00 00 00 00       	mov    $0x0,%eax
  40105f:	2d ec 00 00 00       	sub    $0xec,%eax
  401064:	eb 05                	jmp    40106b <phase_3+0x58>
  401066:	b8 00 00 00 00       	mov    $0x0,%eax
  40106b:	05 dd 03 00 00       	add    $0x3dd,%eax
  401070:	eb 05                	jmp    401077 <phase_3+0x64>
  401072:	b8 00 00 00 00       	mov    $0x0,%eax
  401077:	2d 8b 02 00 00       	sub    $0x28b,%eax
  40107c:	eb 05                	jmp    401083 <phase_3+0x70>
  40107e:	b8 00 00 00 00       	mov    $0x0,%eax
  401083:	05 8b 02 00 00       	add    $0x28b,%eax
  401088:	eb 05                	jmp    40108f <phase_3+0x7c>
  40108a:	b8 00 00 00 00       	mov    $0x0,%eax
  40108f:	2d 8b 02 00 00       	sub    $0x28b,%eax
  401094:	eb 05                	jmp    40109b <phase_3+0x88>
  401096:	b8 00 00 00 00       	mov    $0x0,%eax
  40109b:	05 8b 02 00 00       	add    $0x28b,%eax
  4010a0:	eb 05                	jmp    4010a7 <phase_3+0x94>
  4010a2:	b8 00 00 00 00       	mov    $0x0,%eax
  4010a7:	2d 8b 02 00 00       	sub    $0x28b,%eax
  4010ac:	eb 0a                	jmp    4010b8 <phase_3+0xa5>
  4010ae:	e8 71 06 00 00       	callq  401724 <explode_bomb>
  4010b3:	b8 00 00 00 00       	mov    $0x0,%eax
  4010b8:	83 3c 24 05          	cmpl   $0x5,(%rsp)
  4010bc:	7f 06                	jg     4010c4 <phase_3+0xb1>
  4010be:	3b 44 24 04          	cmp    0x4(%rsp),%eax
  4010c2:	74 05                	je     4010c9 <phase_3+0xb6>
  4010c4:	e8 5b 06 00 00       	callq  401724 <explode_bomb>
  4010c9:	48 8b 44 24 08       	mov    0x8(%rsp),%rax
  4010ce:	64 48 33 04 25 28 00 	xor    %fs:0x28,%rax
  4010d5:	00 00 
  4010d7:	74 05                	je     4010de <phase_3+0xcb>
  4010d9:	e8 02 fb ff ff       	callq  400be0 <__stack_chk_fail@plt>
  4010de:	48 83 c4 18          	add    $0x18,%rsp
  4010e2:	c3                   	retq   

00000000004010e3 <func4>:
  4010e3:	85 ff                	test   %edi,%edi
  4010e5:	7e 2a                	jle    401111 <func4+0x2e>
  4010e7:	89 f0                	mov    %esi,%eax
  4010e9:	83 ff 01             	cmp    $0x1,%edi
  4010ec:	74 2d                	je     40111b <func4+0x38>
  4010ee:	41 54                	push   %r12
  4010f0:	55                   	push   %rbp
  4010f1:	53                   	push   %rbx
  4010f2:	89 f5                	mov    %esi,%ebp
  4010f4:	89 fb                	mov    %edi,%ebx
  4010f6:	8d 7f ff             	lea    -0x1(%rdi),%edi
  4010f9:	e8 e5 ff ff ff       	callq  4010e3 <func4>
  4010fe:	44 8d 24 28          	lea    (%rax,%rbp,1),%r12d
  401102:	8d 7b fe             	lea    -0x2(%rbx),%edi
  401105:	89 ee                	mov    %ebp,%esi
  401107:	e8 d7 ff ff ff       	callq  4010e3 <func4>
  40110c:	44 01 e0             	add    %r12d,%eax
  40110f:	eb 06                	jmp    401117 <func4+0x34>
  401111:	b8 00 00 00 00       	mov    $0x0,%eax
  401116:	c3                   	retq   
  401117:	5b                   	pop    %rbx
  401118:	5d                   	pop    %rbp
  401119:	41 5c                	pop    %r12
  40111b:	f3 c3                	repz retq 

000000000040111d <phase_4>:
  40111d:	48 83 ec 18          	sub    $0x18,%rsp
  401121:	64 48 8b 04 25 28 00 	mov    %fs:0x28,%rax
  401128:	00 00 
  40112a:	48 89 44 24 08       	mov    %rax,0x8(%rsp)
  40112f:	31 c0                	xor    %eax,%eax
  401131:	48 89 e1             	mov    %rsp,%rcx
  401134:	48 8d 54 24 04       	lea    0x4(%rsp),%rdx
  401139:	be 55 2a 40 00       	mov    $0x402a55,%esi
  40113e:	e8 6d fb ff ff       	callq  400cb0 <__isoc99_sscanf@plt>
  401143:	83 f8 02             	cmp    $0x2,%eax
  401146:	75 0b                	jne    401153 <phase_4+0x36>
  401148:	8b 04 24             	mov    (%rsp),%eax
  40114b:	83 e8 02             	sub    $0x2,%eax
  40114e:	83 f8 02             	cmp    $0x2,%eax
  401151:	76 05                	jbe    401158 <phase_4+0x3b>
  401153:	e8 cc 05 00 00       	callq  401724 <explode_bomb>
  401158:	8b 34 24             	mov    (%rsp),%esi
  40115b:	bf 08 00 00 00       	mov    $0x8,%edi
  401160:	e8 7e ff ff ff       	callq  4010e3 <func4>
  401165:	3b 44 24 04          	cmp    0x4(%rsp),%eax
  401169:	74 05                	je     401170 <phase_4+0x53>
  40116b:	e8 b4 05 00 00       	callq  401724 <explode_bomb>
  401170:	48 8b 44 24 08       	mov    0x8(%rsp),%rax
  401175:	64 48 33 04 25 28 00 	xor    %fs:0x28,%rax
  40117c:	00 00 
  40117e:	74 05                	je     401185 <phase_4+0x68>
  401180:	e8 5b fa ff ff       	callq  400be0 <__stack_chk_fail@plt>
  401185:	48 83 c4 18          	add    $0x18,%rsp
  401189:	c3                   	retq   

000000000040118a <phase_5>:
  40118a:	48 83 ec 18          	sub    $0x18,%rsp
  40118e:	64 48 8b 04 25 28 00 	mov    %fs:0x28,%rax
  401195:	00 00 
  401197:	48 89 44 24 08       	mov    %rax,0x8(%rsp)
  40119c:	31 c0                	xor    %eax,%eax
  40119e:	48 8d 4c 24 04       	lea    0x4(%rsp),%rcx
  4011a3:	48 89 e2             	mov    %rsp,%rdx
  4011a6:	be 55 2a 40 00       	mov    $0x402a55,%esi
  4011ab:	e8 00 fb ff ff       	callq  400cb0 <__isoc99_sscanf@plt>
  4011b0:	83 f8 01             	cmp    $0x1,%eax
  4011b3:	7f 05                	jg     4011ba <phase_5+0x30>
  4011b5:	e8 6a 05 00 00       	callq  401724 <explode_bomb>
  4011ba:	8b 04 24             	mov    (%rsp),%eax
  4011bd:	83 e0 0f             	and    $0xf,%eax
  4011c0:	89 04 24             	mov    %eax,(%rsp)
  4011c3:	83 f8 0f             	cmp    $0xf,%eax
  4011c6:	74 2f                	je     4011f7 <phase_5+0x6d>
  4011c8:	b9 00 00 00 00       	mov    $0x0,%ecx
  4011cd:	ba 00 00 00 00       	mov    $0x0,%edx
  4011d2:	83 c2 01             	add    $0x1,%edx
  4011d5:	48 98                	cltq   
  4011d7:	8b 04 85 00 28 40 00 	mov    0x402800(,%rax,4),%eax
  4011de:	01 c1                	add    %eax,%ecx
  4011e0:	83 f8 0f             	cmp    $0xf,%eax
  4011e3:	75 ed                	jne    4011d2 <phase_5+0x48>
  4011e5:	c7 04 24 0f 00 00 00 	movl   $0xf,(%rsp)
  4011ec:	83 fa 0f             	cmp    $0xf,%edx
  4011ef:	75 06                	jne    4011f7 <phase_5+0x6d>
  4011f1:	3b 4c 24 04          	cmp    0x4(%rsp),%ecx
  4011f5:	74 05                	je     4011fc <phase_5+0x72>
  4011f7:	e8 28 05 00 00       	callq  401724 <explode_bomb>
  4011fc:	48 8b 44 24 08       	mov    0x8(%rsp),%rax
  401201:	64 48 33 04 25 28 00 	xor    %fs:0x28,%rax
  401208:	00 00 
  40120a:	74 05                	je     401211 <phase_5+0x87>
  40120c:	e8 cf f9 ff ff       	callq  400be0 <__stack_chk_fail@plt>
  401211:	48 83 c4 18          	add    $0x18,%rsp
  401215:	c3                   	retq   

0000000000401216 <phase_6>:
  401216:	41 56                	push   %r14
  401218:	41 55                	push   %r13
  40121a:	41 54                	push   %r12
  40121c:	55                   	push   %rbp
  40121d:	53                   	push   %rbx
  40121e:	48 83 ec 60          	sub    $0x60,%rsp
  401222:	64 48 8b 04 25 28 00 	mov    %fs:0x28,%rax
  401229:	00 00 
  40122b:	48 89 44 24 58       	mov    %rax,0x58(%rsp)
  401230:	31 c0                	xor    %eax,%eax
  401232:	48 89 e6             	mov    %rsp,%rsi
  401235:	e8 20 05 00 00       	callq  40175a <read_six_numbers>
  40123a:	49 89 e4             	mov    %rsp,%r12
  40123d:	49 89 e5             	mov    %rsp,%r13
  401240:	41 be 00 00 00 00    	mov    $0x0,%r14d
  401246:	4c 89 ed             	mov    %r13,%rbp
  401249:	41 8b 45 00          	mov    0x0(%r13),%eax
  40124d:	83 e8 01             	sub    $0x1,%eax
  401250:	83 f8 05             	cmp    $0x5,%eax
  401253:	76 05                	jbe    40125a <phase_6+0x44>
  401255:	e8 ca 04 00 00       	callq  401724 <explode_bomb>
  40125a:	41 83 c6 01          	add    $0x1,%r14d
  40125e:	41 83 fe 06          	cmp    $0x6,%r14d
  401262:	74 21                	je     401285 <phase_6+0x6f>
  401264:	44 89 f3             	mov    %r14d,%ebx
  401267:	48 63 c3             	movslq %ebx,%rax
  40126a:	8b 04 84             	mov    (%rsp,%rax,4),%eax
  40126d:	39 45 00             	cmp    %eax,0x0(%rbp)
  401270:	75 05                	jne    401277 <phase_6+0x61>
  401272:	e8 ad 04 00 00       	callq  401724 <explode_bomb>
  401277:	83 c3 01             	add    $0x1,%ebx
  40127a:	83 fb 05             	cmp    $0x5,%ebx
  40127d:	7e e8                	jle    401267 <phase_6+0x51>
  40127f:	49 83 c5 04          	add    $0x4,%r13
  401283:	eb c1                	jmp    401246 <phase_6+0x30>
  401285:	48 8d 4c 24 18       	lea    0x18(%rsp),%rcx
  40128a:	ba 07 00 00 00       	mov    $0x7,%edx
  40128f:	89 d0                	mov    %edx,%eax
  401291:	41 2b 04 24          	sub    (%r12),%eax
  401295:	41 89 04 24          	mov    %eax,(%r12)
  401299:	49 83 c4 04          	add    $0x4,%r12
  40129d:	49 39 cc             	cmp    %rcx,%r12
  4012a0:	75 ed                	jne    40128f <phase_6+0x79>
  4012a2:	be 00 00 00 00       	mov    $0x0,%esi
  4012a7:	eb 1a                	jmp    4012c3 <phase_6+0xad>
  4012a9:	48 8b 52 08          	mov    0x8(%rdx),%rdx
  4012ad:	83 c0 01             	add    $0x1,%eax
  4012b0:	39 c8                	cmp    %ecx,%eax
  4012b2:	75 f5                	jne    4012a9 <phase_6+0x93>
  4012b4:	48 89 54 74 20       	mov    %rdx,0x20(%rsp,%rsi,2)
  4012b9:	48 83 c6 04          	add    $0x4,%rsi
  4012bd:	48 83 fe 18          	cmp    $0x18,%rsi
  4012c1:	74 14                	je     4012d7 <phase_6+0xc1>
  4012c3:	8b 0c 34             	mov    (%rsp,%rsi,1),%ecx
  4012c6:	b8 01 00 00 00       	mov    $0x1,%eax
  4012cb:	ba 60 43 60 00       	mov    $0x604360,%edx
  4012d0:	83 f9 01             	cmp    $0x1,%ecx
  4012d3:	7f d4                	jg     4012a9 <phase_6+0x93>
  4012d5:	eb dd                	jmp    4012b4 <phase_6+0x9e>
  4012d7:	48 8b 5c 24 20       	mov    0x20(%rsp),%rbx
  4012dc:	48 8d 44 24 20       	lea    0x20(%rsp),%rax
  4012e1:	48 8d 74 24 48       	lea    0x48(%rsp),%rsi
  4012e6:	48 89 d9             	mov    %rbx,%rcx
  4012e9:	48 8b 50 08          	mov    0x8(%rax),%rdx
  4012ed:	48 89 51 08          	mov    %rdx,0x8(%rcx)
  4012f1:	48 83 c0 08          	add    $0x8,%rax
  4012f5:	48 89 d1             	mov    %rdx,%rcx
  4012f8:	48 39 f0             	cmp    %rsi,%rax
  4012fb:	75 ec                	jne    4012e9 <phase_6+0xd3>
  4012fd:	48 c7 42 08 00 00 00 	movq   $0x0,0x8(%rdx)
  401304:	00 
  401305:	bd 05 00 00 00       	mov    $0x5,%ebp
  40130a:	48 8b 43 08          	mov    0x8(%rbx),%rax
  40130e:	8b 00                	mov    (%rax),%eax
  401310:	39 03                	cmp    %eax,(%rbx)
  401312:	7d 05                	jge    401319 <phase_6+0x103>
  401314:	e8 0b 04 00 00       	callq  401724 <explode_bomb>
  401319:	48 8b 5b 08          	mov    0x8(%rbx),%rbx
  40131d:	83 ed 01             	sub    $0x1,%ebp
  401320:	75 e8                	jne    40130a <phase_6+0xf4>
  401322:	48 8b 44 24 58       	mov    0x58(%rsp),%rax
  401327:	64 48 33 04 25 28 00 	xor    %fs:0x28,%rax
  40132e:	00 00 
  401330:	74 05                	je     401337 <phase_6+0x121>
  401332:	e8 a9 f8 ff ff       	callq  400be0 <__stack_chk_fail@plt>
  401337:	48 83 c4 60          	add    $0x60,%rsp
  40133b:	5b                   	pop    %rbx
  40133c:	5d                   	pop    %rbp
  40133d:	41 5c                	pop    %r12
  40133f:	41 5d                	pop    %r13
  401341:	41 5e                	pop    %r14
  401343:	c3                   	retq   

0000000000401344 <fun7>:
  401344:	48 83 ec 08          	sub    $0x8,%rsp
  401348:	48 85 ff             	test   %rdi,%rdi
  40134b:	74 2b                	je     401378 <fun7+0x34>
  40134d:	8b 17                	mov    (%rdi),%edx
  40134f:	39 f2                	cmp    %esi,%edx
  401351:	7e 0d                	jle    401360 <fun7+0x1c>
  401353:	48 8b 7f 08          	mov    0x8(%rdi),%rdi
  401357:	e8 e8 ff ff ff       	callq  401344 <fun7>
  40135c:	01 c0                	add    %eax,%eax
  40135e:	eb 1d                	jmp    40137d <fun7+0x39>
  401360:	b8 00 00 00 00       	mov    $0x0,%eax
  401365:	39 f2                	cmp    %esi,%edx
  401367:	74 14                	je     40137d <fun7+0x39>
  401369:	48 8b 7f 10          	mov    0x10(%rdi),%rdi
  40136d:	e8 d2 ff ff ff       	callq  401344 <fun7>
  401372:	8d 44 00 01          	lea    0x1(%rax,%rax,1),%eax
  401376:	eb 05                	jmp    40137d <fun7+0x39>
  401378:	b8 ff ff ff ff       	mov    $0xffffffff,%eax
  40137d:	48 83 c4 08          	add    $0x8,%rsp
  401381:	c3                   	retq   

0000000000401382 <secret_phase>:
  401382:	53                   	push   %rbx
  401383:	e8 11 04 00 00       	callq  401799 <read_line>
  401388:	ba 0a 00 00 00       	mov    $0xa,%edx
  40138d:	be 00 00 00 00       	mov    $0x0,%esi
  401392:	48 89 c7             	mov    %rax,%rdi
  401395:	e8 f6 f8 ff ff       	callq  400c90 <strtol@plt>
  40139a:	48 89 c3             	mov    %rax,%rbx
  40139d:	8d 40 ff             	lea    -0x1(%rax),%eax
  4013a0:	3d e8 03 00 00       	cmp    $0x3e8,%eax
  4013a5:	76 05                	jbe    4013ac <secret_phase+0x2a>
  4013a7:	e8 78 03 00 00       	callq  401724 <explode_bomb>
  4013ac:	89 de                	mov    %ebx,%esi
  4013ae:	bf 80 41 60 00       	mov    $0x604180,%edi
  4013b3:	e8 8c ff ff ff       	callq  401344 <fun7>
  4013b8:	83 f8 02             	cmp    $0x2,%eax
  4013bb:	74 05                	je     4013c2 <secret_phase+0x40>
  4013bd:	e8 62 03 00 00       	callq  401724 <explode_bomb>
  4013c2:	bf 78 27 40 00       	mov    $0x402778,%edi
  4013c7:	e8 f4 f7 ff ff       	callq  400bc0 <puts@plt>
  4013cc:	e8 f0 04 00 00       	callq  4018c1 <phase_defused>
  4013d1:	5b                   	pop    %rbx
  4013d2:	c3                   	retq   

00000000004013d3 <sig_handler>:
  4013d3:	48 83 ec 08          	sub    $0x8,%rsp
  4013d7:	bf 40 28 40 00       	mov    $0x402840,%edi
  4013dc:	e8 df f7 ff ff       	callq  400bc0 <puts@plt>
  4013e1:	bf 03 00 00 00       	mov    $0x3,%edi
  4013e6:	e8 35 f9 ff ff       	callq  400d20 <sleep@plt>
  4013eb:	be d1 29 40 00       	mov    $0x4029d1,%esi
  4013f0:	bf 01 00 00 00       	mov    $0x1,%edi
  4013f5:	b8 00 00 00 00       	mov    $0x0,%eax
  4013fa:	e8 c1 f8 ff ff       	callq  400cc0 <__printf_chk@plt>
  4013ff:	48 8b 3d fa 37 20 00 	mov    0x2037fa(%rip),%rdi        # 604c00 <__TMC_END__>
  401406:	e8 95 f8 ff ff       	callq  400ca0 <fflush@plt>
  40140b:	bf 01 00 00 00       	mov    $0x1,%edi
  401410:	e8 0b f9 ff ff       	callq  400d20 <sleep@plt>
  401415:	bf d9 29 40 00       	mov    $0x4029d9,%edi
  40141a:	e8 a1 f7 ff ff       	callq  400bc0 <puts@plt>
  40141f:	bf 10 00 00 00       	mov    $0x10,%edi
  401424:	e8 c7 f8 ff ff       	callq  400cf0 <exit@plt>

0000000000401429 <invalid_phase>:
  401429:	48 83 ec 08          	sub    $0x8,%rsp
  40142d:	48 89 fa             	mov    %rdi,%rdx
  401430:	be e1 29 40 00       	mov    $0x4029e1,%esi
  401435:	bf 01 00 00 00       	mov    $0x1,%edi
  40143a:	b8 00 00 00 00       	mov    $0x0,%eax
  40143f:	e8 7c f8 ff ff       	callq  400cc0 <__printf_chk@plt>
  401444:	bf 08 00 00 00       	mov    $0x8,%edi
  401449:	e8 a2 f8 ff ff       	callq  400cf0 <exit@plt>

000000000040144e <string_length>:
  40144e:	80 3f 00             	cmpb   $0x0,(%rdi)
  401451:	74 12                	je     401465 <string_length+0x17>
  401453:	48 89 fa             	mov    %rdi,%rdx
  401456:	48 83 c2 01          	add    $0x1,%rdx
  40145a:	89 d0                	mov    %edx,%eax
  40145c:	29 f8                	sub    %edi,%eax
  40145e:	80 3a 00             	cmpb   $0x0,(%rdx)
  401461:	75 f3                	jne    401456 <string_length+0x8>
  401463:	f3 c3                	repz retq 
  401465:	b8 00 00 00 00       	mov    $0x0,%eax
  40146a:	c3                   	retq   

000000000040146b <strings_not_equal>:
  40146b:	41 54                	push   %r12
  40146d:	55                   	push   %rbp
  40146e:	53                   	push   %rbx
  40146f:	48 89 fb             	mov    %rdi,%rbx
  401472:	48 89 f5             	mov    %rsi,%rbp
  401475:	e8 d4 ff ff ff       	callq  40144e <string_length>
  40147a:	41 89 c4             	mov    %eax,%r12d
  40147d:	48 89 ef             	mov    %rbp,%rdi
  401480:	e8 c9 ff ff ff       	callq  40144e <string_length>
  401485:	89 c1                	mov    %eax,%ecx
  401487:	b8 01 00 00 00       	mov    $0x1,%eax
  40148c:	41 39 cc             	cmp    %ecx,%r12d
  40148f:	75 3c                	jne    4014cd <strings_not_equal+0x62>
  401491:	0f b6 03             	movzbl (%rbx),%eax
  401494:	84 c0                	test   %al,%al
  401496:	74 22                	je     4014ba <strings_not_equal+0x4f>
  401498:	3a 45 00             	cmp    0x0(%rbp),%al
  40149b:	74 07                	je     4014a4 <strings_not_equal+0x39>
  40149d:	eb 22                	jmp    4014c1 <strings_not_equal+0x56>
  40149f:	3a 45 00             	cmp    0x0(%rbp),%al
  4014a2:	75 24                	jne    4014c8 <strings_not_equal+0x5d>
  4014a4:	48 83 c3 01          	add    $0x1,%rbx
  4014a8:	48 83 c5 01          	add    $0x1,%rbp
  4014ac:	0f b6 03             	movzbl (%rbx),%eax
  4014af:	84 c0                	test   %al,%al
  4014b1:	75 ec                	jne    40149f <strings_not_equal+0x34>
  4014b3:	b8 00 00 00 00       	mov    $0x0,%eax
  4014b8:	eb 13                	jmp    4014cd <strings_not_equal+0x62>
  4014ba:	b8 00 00 00 00       	mov    $0x0,%eax
  4014bf:	eb 0c                	jmp    4014cd <strings_not_equal+0x62>
  4014c1:	b8 01 00 00 00       	mov    $0x1,%eax
  4014c6:	eb 05                	jmp    4014cd <strings_not_equal+0x62>
  4014c8:	b8 01 00 00 00       	mov    $0x1,%eax
  4014cd:	5b                   	pop    %rbx
  4014ce:	5d                   	pop    %rbp
  4014cf:	41 5c                	pop    %r12
  4014d1:	c3                   	retq   

00000000004014d2 <initialize_bomb>:
  4014d2:	53                   	push   %rbx
  4014d3:	48 81 ec 50 20 00 00 	sub    $0x2050,%rsp
  4014da:	64 48 8b 04 25 28 00 	mov    %fs:0x28,%rax
  4014e1:	00 00 
  4014e3:	48 89 84 24 48 20 00 	mov    %rax,0x2048(%rsp)
  4014ea:	00 
  4014eb:	31 c0                	xor    %eax,%eax
  4014ed:	be d3 13 40 00       	mov    $0x4013d3,%esi
  4014f2:	bf 02 00 00 00       	mov    $0x2,%edi
  4014f7:	e8 44 f7 ff ff       	callq  400c40 <signal@plt>
  4014fc:	be 40 00 00 00       	mov    $0x40,%esi
  401501:	48 89 e7             	mov    %rsp,%rdi
  401504:	e8 d7 f7 ff ff       	callq  400ce0 <gethostname@plt>
  401509:	85 c0                	test   %eax,%eax
  40150b:	75 13                	jne    401520 <initialize_bomb+0x4e>
  40150d:	48 8b 3d ec 32 20 00 	mov    0x2032ec(%rip),%rdi        # 604800 <host_table>
  401514:	bb 08 48 60 00       	mov    $0x604808,%ebx
  401519:	48 85 ff             	test   %rdi,%rdi
  40151c:	75 16                	jne    401534 <initialize_bomb+0x62>
  40151e:	eb 2d                	jmp    40154d <initialize_bomb+0x7b>
  401520:	bf 78 28 40 00       	mov    $0x402878,%edi
  401525:	e8 96 f6 ff ff       	callq  400bc0 <puts@plt>
  40152a:	bf 08 00 00 00       	mov    $0x8,%edi
  40152f:	e8 bc f7 ff ff       	callq  400cf0 <exit@plt>
  401534:	48 89 e6             	mov    %rsp,%rsi
  401537:	e8 54 f6 ff ff       	callq  400b90 <strcasecmp@plt>
  40153c:	85 c0                	test   %eax,%eax
  40153e:	74 0d                	je     40154d <initialize_bomb+0x7b>
  401540:	48 83 c3 08          	add    $0x8,%rbx
  401544:	48 8b 7b f8          	mov    -0x8(%rbx),%rdi
  401548:	48 85 ff             	test   %rdi,%rdi
  40154b:	75 e7                	jne    401534 <initialize_bomb+0x62>
  40154d:	48 8d 7c 24 40       	lea    0x40(%rsp),%rdi
  401552:	e8 ab 0d 00 00       	callq  402302 <init_driver>
  401557:	85 c0                	test   %eax,%eax
  401559:	79 23                	jns    40157e <initialize_bomb+0xac>
  40155b:	48 8d 54 24 40       	lea    0x40(%rsp),%rdx
  401560:	be f2 29 40 00       	mov    $0x4029f2,%esi
  401565:	bf 01 00 00 00       	mov    $0x1,%edi
  40156a:	b8 00 00 00 00       	mov    $0x0,%eax
  40156f:	e8 4c f7 ff ff       	callq  400cc0 <__printf_chk@plt>
  401574:	bf 08 00 00 00       	mov    $0x8,%edi
  401579:	e8 72 f7 ff ff       	callq  400cf0 <exit@plt>
  40157e:	48 8b 84 24 48 20 00 	mov    0x2048(%rsp),%rax
  401585:	00 
  401586:	64 48 33 04 25 28 00 	xor    %fs:0x28,%rax
  40158d:	00 00 
  40158f:	74 05                	je     401596 <initialize_bomb+0xc4>
  401591:	e8 4a f6 ff ff       	callq  400be0 <__stack_chk_fail@plt>
  401596:	48 81 c4 50 20 00 00 	add    $0x2050,%rsp
  40159d:	5b                   	pop    %rbx
  40159e:	c3                   	retq   

000000000040159f <initialize_bomb_solve>:
  40159f:	f3 c3                	repz retq 

00000000004015a1 <blank_line>:
  4015a1:	55                   	push   %rbp
  4015a2:	53                   	push   %rbx
  4015a3:	48 83 ec 08          	sub    $0x8,%rsp
  4015a7:	48 89 fd             	mov    %rdi,%rbp
  4015aa:	eb 17                	jmp    4015c3 <blank_line+0x22>
  4015ac:	e8 7f f7 ff ff       	callq  400d30 <__ctype_b_loc@plt>
  4015b1:	48 83 c5 01          	add    $0x1,%rbp
  4015b5:	48 0f be db          	movsbq %bl,%rbx
  4015b9:	48 8b 00             	mov    (%rax),%rax
  4015bc:	f6 44 58 01 20       	testb  $0x20,0x1(%rax,%rbx,2)
  4015c1:	74 0f                	je     4015d2 <blank_line+0x31>
  4015c3:	0f b6 5d 00          	movzbl 0x0(%rbp),%ebx
  4015c7:	84 db                	test   %bl,%bl
  4015c9:	75 e1                	jne    4015ac <blank_line+0xb>
  4015cb:	b8 01 00 00 00       	mov    $0x1,%eax
  4015d0:	eb 05                	jmp    4015d7 <blank_line+0x36>
  4015d2:	b8 00 00 00 00       	mov    $0x0,%eax
  4015d7:	48 83 c4 08          	add    $0x8,%rsp
  4015db:	5b                   	pop    %rbx
  4015dc:	5d                   	pop    %rbp
  4015dd:	c3                   	retq   

00000000004015de <skip>:
  4015de:	53                   	push   %rbx
  4015df:	48 63 05 36 36 20 00 	movslq 0x203636(%rip),%rax        # 604c1c <num_input_strings>
  4015e6:	48 8d 3c 80          	lea    (%rax,%rax,4),%rdi
  4015ea:	48 c1 e7 04          	shl    $0x4,%rdi
  4015ee:	48 81 c7 40 4c 60 00 	add    $0x604c40,%rdi
  4015f5:	48 8b 15 24 36 20 00 	mov    0x203624(%rip),%rdx        # 604c20 <infile>
  4015fc:	be 50 00 00 00       	mov    $0x50,%esi
  401601:	e8 2a f6 ff ff       	callq  400c30 <fgets@plt>
  401606:	48 89 c3             	mov    %rax,%rbx
  401609:	48 85 c0             	test   %rax,%rax
  40160c:	74 0c                	je     40161a <skip+0x3c>
  40160e:	48 89 c7             	mov    %rax,%rdi
  401611:	e8 8b ff ff ff       	callq  4015a1 <blank_line>
  401616:	85 c0                	test   %eax,%eax
  401618:	75 c5                	jne    4015df <skip+0x1>
  40161a:	48 89 d8             	mov    %rbx,%rax
  40161d:	5b                   	pop    %rbx
  40161e:	c3                   	retq   

000000000040161f <send_msg>:
  40161f:	48 81 ec 18 40 00 00 	sub    $0x4018,%rsp
  401626:	41 89 f8             	mov    %edi,%r8d
  401629:	64 48 8b 04 25 28 00 	mov    %fs:0x28,%rax
  401630:	00 00 
  401632:	48 89 84 24 08 40 00 	mov    %rax,0x4008(%rsp)
  401639:	00 
  40163a:	31 c0                	xor    %eax,%eax
  40163c:	8b 35 da 35 20 00    	mov    0x2035da(%rip),%esi        # 604c1c <num_input_strings>
  401642:	8d 46 ff             	lea    -0x1(%rsi),%eax
  401645:	48 98                	cltq   
  401647:	48 8d 14 80          	lea    (%rax,%rax,4),%rdx
  40164b:	48 c1 e2 04          	shl    $0x4,%rdx
  40164f:	48 81 c2 40 4c 60 00 	add    $0x604c40,%rdx
  401656:	48 89 d7             	mov    %rdx,%rdi
  401659:	b8 00 00 00 00       	mov    $0x0,%eax
  40165e:	48 c7 c1 ff ff ff ff 	mov    $0xffffffffffffffff,%rcx
  401665:	f2 ae                	repnz scas %es:(%rdi),%al
  401667:	48 f7 d1             	not    %rcx
  40166a:	48 83 c1 63          	add    $0x63,%rcx
  40166e:	48 81 f9 00 20 00 00 	cmp    $0x2000,%rcx
  401675:	76 19                	jbe    401690 <send_msg+0x71>
  401677:	be b0 28 40 00       	mov    $0x4028b0,%esi
  40167c:	bf 01 00 00 00       	mov    $0x1,%edi
  401681:	e8 3a f6 ff ff       	callq  400cc0 <__printf_chk@plt>
  401686:	bf 08 00 00 00       	mov    $0x8,%edi
  40168b:	e8 60 f6 ff ff       	callq  400cf0 <exit@plt>
  401690:	45 85 c0             	test   %r8d,%r8d
  401693:	41 b9 14 2a 40 00    	mov    $0x402a14,%r9d
  401699:	b8 0c 2a 40 00       	mov    $0x402a0c,%eax
  40169e:	4c 0f 45 c8          	cmovne %rax,%r9
  4016a2:	52                   	push   %rdx
  4016a3:	56                   	push   %rsi
  4016a4:	44 8b 05 15 31 20 00 	mov    0x203115(%rip),%r8d        # 6047c0 <bomb_id>
  4016ab:	b9 1d 2a 40 00       	mov    $0x402a1d,%ecx
  4016b0:	ba 00 20 00 00       	mov    $0x2000,%edx
  4016b5:	be 01 00 00 00       	mov    $0x1,%esi
  4016ba:	48 8d 7c 24 10       	lea    0x10(%rsp),%rdi
  4016bf:	b8 00 00 00 00       	mov    $0x0,%eax
  4016c4:	e8 77 f6 ff ff       	callq  400d40 <__sprintf_chk@plt>
  4016c9:	48 8d 8c 24 10 20 00 	lea    0x2010(%rsp),%rcx
  4016d0:	00 
  4016d1:	ba 00 00 00 00       	mov    $0x0,%edx
  4016d6:	48 8d 74 24 10       	lea    0x10(%rsp),%rsi
  4016db:	bf c0 43 60 00       	mov    $0x6043c0,%edi
  4016e0:	e8 f2 0d 00 00       	callq  4024d7 <driver_post>
  4016e5:	48 83 c4 10          	add    $0x10,%rsp
  4016e9:	85 c0                	test   %eax,%eax
  4016eb:	79 17                	jns    401704 <send_msg+0xe5>
  4016ed:	48 8d bc 24 00 20 00 	lea    0x2000(%rsp),%rdi
  4016f4:	00 
  4016f5:	e8 c6 f4 ff ff       	callq  400bc0 <puts@plt>
  4016fa:	bf 00 00 00 00       	mov    $0x0,%edi
  4016ff:	e8 ec f5 ff ff       	callq  400cf0 <exit@plt>
  401704:	48 8b 84 24 08 40 00 	mov    0x4008(%rsp),%rax
  40170b:	00 
  40170c:	64 48 33 04 25 28 00 	xor    %fs:0x28,%rax
  401713:	00 00 
  401715:	74 05                	je     40171c <send_msg+0xfd>
  401717:	e8 c4 f4 ff ff       	callq  400be0 <__stack_chk_fail@plt>
  40171c:	48 81 c4 18 40 00 00 	add    $0x4018,%rsp
  401723:	c3                   	retq   

0000000000401724 <explode_bomb>:
  401724:	48 83 ec 08          	sub    $0x8,%rsp
  401728:	bf 29 2a 40 00       	mov    $0x402a29,%edi
  40172d:	e8 8e f4 ff ff       	callq  400bc0 <puts@plt>
  401732:	bf 32 2a 40 00       	mov    $0x402a32,%edi
  401737:	e8 84 f4 ff ff       	callq  400bc0 <puts@plt>
  40173c:	bf 00 00 00 00       	mov    $0x0,%edi
  401741:	e8 d9 fe ff ff       	callq  40161f <send_msg>
  401746:	bf d8 28 40 00       	mov    $0x4028d8,%edi
  40174b:	e8 70 f4 ff ff       	callq  400bc0 <puts@plt>
  401750:	bf 08 00 00 00       	mov    $0x8,%edi
  401755:	e8 96 f5 ff ff       	callq  400cf0 <exit@plt>

000000000040175a <read_six_numbers>:
  40175a:	48 83 ec 08          	sub    $0x8,%rsp
  40175e:	48 89 f2             	mov    %rsi,%rdx
  401761:	48 8d 4e 04          	lea    0x4(%rsi),%rcx
  401765:	48 8d 46 14          	lea    0x14(%rsi),%rax
  401769:	50                   	push   %rax
  40176a:	48 8d 46 10          	lea    0x10(%rsi),%rax
  40176e:	50                   	push   %rax
  40176f:	4c 8d 4e 0c          	lea    0xc(%rsi),%r9
  401773:	4c 8d 46 08          	lea    0x8(%rsi),%r8
  401777:	be 49 2a 40 00       	mov    $0x402a49,%esi
  40177c:	b8 00 00 00 00       	mov    $0x0,%eax
  401781:	e8 2a f5 ff ff       	callq  400cb0 <__isoc99_sscanf@plt>
  401786:	48 83 c4 10          	add    $0x10,%rsp
  40178a:	83 f8 05             	cmp    $0x5,%eax
  40178d:	7f 05                	jg     401794 <read_six_numbers+0x3a>
  40178f:	e8 90 ff ff ff       	callq  401724 <explode_bomb>
  401794:	48 83 c4 08          	add    $0x8,%rsp
  401798:	c3                   	retq   

0000000000401799 <read_line>:
  401799:	48 83 ec 08          	sub    $0x8,%rsp
  40179d:	b8 00 00 00 00       	mov    $0x0,%eax
  4017a2:	e8 37 fe ff ff       	callq  4015de <skip>
  4017a7:	48 85 c0             	test   %rax,%rax
  4017aa:	75 6e                	jne    40181a <read_line+0x81>
  4017ac:	48 8b 05 55 34 20 00 	mov    0x203455(%rip),%rax        # 604c08 <stdin@@GLIBC_2.2.5>
  4017b3:	48 39 05 66 34 20 00 	cmp    %rax,0x203466(%rip)        # 604c20 <infile>
  4017ba:	75 14                	jne    4017d0 <read_line+0x37>
  4017bc:	bf 5b 2a 40 00       	mov    $0x402a5b,%edi
  4017c1:	e8 fa f3 ff ff       	callq  400bc0 <puts@plt>
  4017c6:	bf 08 00 00 00       	mov    $0x8,%edi
  4017cb:	e8 20 f5 ff ff       	callq  400cf0 <exit@plt>
  4017d0:	bf 79 2a 40 00       	mov    $0x402a79,%edi
  4017d5:	e8 a6 f3 ff ff       	callq  400b80 <getenv@plt>
  4017da:	48 85 c0             	test   %rax,%rax
  4017dd:	74 0a                	je     4017e9 <read_line+0x50>
  4017df:	bf 00 00 00 00       	mov    $0x0,%edi
  4017e4:	e8 07 f5 ff ff       	callq  400cf0 <exit@plt>
  4017e9:	48 8b 05 18 34 20 00 	mov    0x203418(%rip),%rax        # 604c08 <stdin@@GLIBC_2.2.5>
  4017f0:	48 89 05 29 34 20 00 	mov    %rax,0x203429(%rip)        # 604c20 <infile>
  4017f7:	b8 00 00 00 00       	mov    $0x0,%eax
  4017fc:	e8 dd fd ff ff       	callq  4015de <skip>
  401801:	48 85 c0             	test   %rax,%rax
  401804:	75 14                	jne    40181a <read_line+0x81>
  401806:	bf 5b 2a 40 00       	mov    $0x402a5b,%edi
  40180b:	e8 b0 f3 ff ff       	callq  400bc0 <puts@plt>
  401810:	bf 00 00 00 00       	mov    $0x0,%edi
  401815:	e8 d6 f4 ff ff       	callq  400cf0 <exit@plt>
  40181a:	44 8b 05 fb 33 20 00 	mov    0x2033fb(%rip),%r8d        # 604c1c <num_input_strings>
  401821:	49 63 c0             	movslq %r8d,%rax
  401824:	48 8d 34 80          	lea    (%rax,%rax,4),%rsi
  401828:	48 c1 e6 04          	shl    $0x4,%rsi
  40182c:	48 81 c6 40 4c 60 00 	add    $0x604c40,%rsi
  401833:	48 89 f7             	mov    %rsi,%rdi
  401836:	b8 00 00 00 00       	mov    $0x0,%eax
  40183b:	48 c7 c1 ff ff ff ff 	mov    $0xffffffffffffffff,%rcx
  401842:	f2 ae                	repnz scas %es:(%rdi),%al
  401844:	48 f7 d1             	not    %rcx
  401847:	48 83 e9 01          	sub    $0x1,%rcx
  40184b:	83 f9 4e             	cmp    $0x4e,%ecx
  40184e:	7e 46                	jle    401896 <read_line+0xfd>
  401850:	bf 84 2a 40 00       	mov    $0x402a84,%edi
  401855:	e8 66 f3 ff ff       	callq  400bc0 <puts@plt>
  40185a:	8b 05 bc 33 20 00    	mov    0x2033bc(%rip),%eax        # 604c1c <num_input_strings>
  401860:	8d 50 01             	lea    0x1(%rax),%edx
  401863:	89 15 b3 33 20 00    	mov    %edx,0x2033b3(%rip)        # 604c1c <num_input_strings>
  401869:	48 98                	cltq   
  40186b:	48 6b c0 50          	imul   $0x50,%rax,%rax
  40186f:	48 bf 2a 2a 2a 74 72 	movabs $0x636e7572742a2a2a,%rdi
  401876:	75 6e 63 
  401879:	48 89 b8 40 4c 60 00 	mov    %rdi,0x604c40(%rax)
  401880:	48 bf 61 74 65 64 2a 	movabs $0x2a2a2a64657461,%rdi
  401887:	2a 2a 00 
  40188a:	48 89 b8 48 4c 60 00 	mov    %rdi,0x604c48(%rax)
  401891:	e8 8e fe ff ff       	callq  401724 <explode_bomb>
  401896:	83 e9 01             	sub    $0x1,%ecx
  401899:	48 63 c9             	movslq %ecx,%rcx
  40189c:	49 63 c0             	movslq %r8d,%rax
  40189f:	48 8d 14 80          	lea    (%rax,%rax,4),%rdx
  4018a3:	48 c1 e2 04          	shl    $0x4,%rdx
  4018a7:	c6 84 11 40 4c 60 00 	movb   $0x0,0x604c40(%rcx,%rdx,1)
  4018ae:	00 
  4018af:	41 8d 40 01          	lea    0x1(%r8),%eax
  4018b3:	89 05 63 33 20 00    	mov    %eax,0x203363(%rip)        # 604c1c <num_input_strings>
  4018b9:	48 89 f0             	mov    %rsi,%rax
  4018bc:	48 83 c4 08          	add    $0x8,%rsp
  4018c0:	c3                   	retq   

00000000004018c1 <phase_defused>:
  4018c1:	48 83 ec 78          	sub    $0x78,%rsp
  4018c5:	64 48 8b 04 25 28 00 	mov    %fs:0x28,%rax
  4018cc:	00 00 
  4018ce:	48 89 44 24 68       	mov    %rax,0x68(%rsp)
  4018d3:	31 c0                	xor    %eax,%eax
  4018d5:	bf 01 00 00 00       	mov    $0x1,%edi
  4018da:	e8 40 fd ff ff       	callq  40161f <send_msg>
  4018df:	83 3d 36 33 20 00 06 	cmpl   $0x6,0x203336(%rip)        # 604c1c <num_input_strings>
  4018e6:	75 6d                	jne    401955 <phase_defused+0x94>
  4018e8:	4c 8d 44 24 10       	lea    0x10(%rsp),%r8
  4018ed:	48 8d 4c 24 0c       	lea    0xc(%rsp),%rcx
  4018f2:	48 8d 54 24 08       	lea    0x8(%rsp),%rdx
  4018f7:	be 9f 2a 40 00       	mov    $0x402a9f,%esi
  4018fc:	bf 30 4d 60 00       	mov    $0x604d30,%edi
  401901:	b8 00 00 00 00       	mov    $0x0,%eax
  401906:	e8 a5 f3 ff ff       	callq  400cb0 <__isoc99_sscanf@plt>
  40190b:	83 f8 03             	cmp    $0x3,%eax
  40190e:	75 31                	jne    401941 <phase_defused+0x80>
  401910:	be a8 2a 40 00       	mov    $0x402aa8,%esi
  401915:	48 8d 7c 24 10       	lea    0x10(%rsp),%rdi
  40191a:	e8 4c fb ff ff       	callq  40146b <strings_not_equal>
  40191f:	85 c0                	test   %eax,%eax
  401921:	75 1e                	jne    401941 <phase_defused+0x80>
  401923:	bf 00 29 40 00       	mov    $0x402900,%edi
  401928:	e8 93 f2 ff ff       	callq  400bc0 <puts@plt>
  40192d:	bf 28 29 40 00       	mov    $0x402928,%edi
  401932:	e8 89 f2 ff ff       	callq  400bc0 <puts@plt>
  401937:	b8 00 00 00 00       	mov    $0x0,%eax
  40193c:	e8 41 fa ff ff       	callq  401382 <secret_phase>
  401941:	bf 60 29 40 00       	mov    $0x402960,%edi
  401946:	e8 75 f2 ff ff       	callq  400bc0 <puts@plt>
  40194b:	bf 90 29 40 00       	mov    $0x402990,%edi
  401950:	e8 6b f2 ff ff       	callq  400bc0 <puts@plt>
  401955:	48 8b 44 24 68       	mov    0x68(%rsp),%rax
  40195a:	64 48 33 04 25 28 00 	xor    %fs:0x28,%rax
  401961:	00 00 
  401963:	74 05                	je     40196a <phase_defused+0xa9>
  401965:	e8 76 f2 ff ff       	callq  400be0 <__stack_chk_fail@plt>
  40196a:	48 83 c4 78          	add    $0x78,%rsp
  40196e:	c3                   	retq   

000000000040196f <sigalrm_handler>:
  40196f:	48 83 ec 08          	sub    $0x8,%rsp
  401973:	b9 00 00 00 00       	mov    $0x0,%ecx
  401978:	ba c0 2a 40 00       	mov    $0x402ac0,%edx
  40197d:	be 01 00 00 00       	mov    $0x1,%esi
  401982:	48 8b 3d 87 32 20 00 	mov    0x203287(%rip),%rdi        # 604c10 <stderr@@GLIBC_2.2.5>
  401989:	b8 00 00 00 00       	mov    $0x0,%eax
  40198e:	e8 7d f3 ff ff       	callq  400d10 <__fprintf_chk@plt>
  401993:	bf 01 00 00 00       	mov    $0x1,%edi
  401998:	e8 53 f3 ff ff       	callq  400cf0 <exit@plt>

000000000040199d <rio_readlineb>:
  40199d:	41 57                	push   %r15
  40199f:	41 56                	push   %r14
  4019a1:	41 55                	push   %r13
  4019a3:	41 54                	push   %r12
  4019a5:	55                   	push   %rbp
  4019a6:	53                   	push   %rbx
  4019a7:	48 83 ec 38          	sub    $0x38,%rsp
  4019ab:	48 89 fb             	mov    %rdi,%rbx
  4019ae:	49 89 f6             	mov    %rsi,%r14
  4019b1:	48 89 54 24 18       	mov    %rdx,0x18(%rsp)
  4019b6:	64 48 8b 0c 25 28 00 	mov    %fs:0x28,%rcx
  4019bd:	00 00 
  4019bf:	48 89 4c 24 28       	mov    %rcx,0x28(%rsp)
  4019c4:	31 c9                	xor    %ecx,%ecx
  4019c6:	41 bd 01 00 00 00    	mov    $0x1,%r13d
  4019cc:	4c 8d 67 10          	lea    0x10(%rdi),%r12
  4019d0:	48 83 fa 01          	cmp    $0x1,%rdx
  4019d4:	77 36                	ja     401a0c <rio_readlineb+0x6f>
  4019d6:	e9 ae 00 00 00       	jmpq   401a89 <rio_readlineb+0xec>
  4019db:	ba 00 20 00 00       	mov    $0x2000,%edx
  4019e0:	4c 89 e6             	mov    %r12,%rsi
  4019e3:	8b 3b                	mov    (%rbx),%edi
  4019e5:	e8 26 f2 ff ff       	callq  400c10 <read@plt>
  4019ea:	89 43 04             	mov    %eax,0x4(%rbx)
  4019ed:	85 c0                	test   %eax,%eax
  4019ef:	79 0f                	jns    401a00 <rio_readlineb+0x63>
  4019f1:	e8 aa f1 ff ff       	callq  400ba0 <__errno_location@plt>
  4019f6:	83 38 04             	cmpl   $0x4,(%rax)
  4019f9:	74 11                	je     401a0c <rio_readlineb+0x6f>
  4019fb:	e9 b2 00 00 00       	jmpq   401ab2 <rio_readlineb+0x115>
  401a00:	85 c0                	test   %eax,%eax
  401a02:	0f 84 b3 00 00 00    	je     401abb <rio_readlineb+0x11e>
  401a08:	4c 89 63 08          	mov    %r12,0x8(%rbx)
  401a0c:	8b 6b 04             	mov    0x4(%rbx),%ebp
  401a0f:	85 ed                	test   %ebp,%ebp
  401a11:	7e c8                	jle    4019db <rio_readlineb+0x3e>
  401a13:	85 ed                	test   %ebp,%ebp
  401a15:	0f 95 c0             	setne  %al
  401a18:	0f b6 c0             	movzbl %al,%eax
  401a1b:	89 44 24 0c          	mov    %eax,0xc(%rsp)
  401a1f:	4c 63 f8             	movslq %eax,%r15
  401a22:	48 8b 4b 08          	mov    0x8(%rbx),%rcx
  401a26:	48 89 ce             	mov    %rcx,%rsi
  401a29:	b9 01 00 00 00       	mov    $0x1,%ecx
  401a2e:	4c 89 fa             	mov    %r15,%rdx
  401a31:	48 89 74 24 10       	mov    %rsi,0x10(%rsp)
  401a36:	48 8d 7c 24 27       	lea    0x27(%rsp),%rdi
  401a3b:	e8 30 f2 ff ff       	callq  400c70 <__memcpy_chk@plt>
  401a40:	4c 03 7c 24 10       	add    0x10(%rsp),%r15
  401a45:	4c 89 7b 08          	mov    %r15,0x8(%rbx)
  401a49:	8b 44 24 0c          	mov    0xc(%rsp),%eax
  401a4d:	29 c5                	sub    %eax,%ebp
  401a4f:	89 6b 04             	mov    %ebp,0x4(%rbx)
  401a52:	83 f8 01             	cmp    $0x1,%eax
  401a55:	75 13                	jne    401a6a <rio_readlineb+0xcd>
  401a57:	49 83 c6 01          	add    $0x1,%r14
  401a5b:	0f b6 44 24 27       	movzbl 0x27(%rsp),%eax
  401a60:	41 88 46 ff          	mov    %al,-0x1(%r14)
  401a64:	3c 0a                	cmp    $0xa,%al
  401a66:	75 13                	jne    401a7b <rio_readlineb+0xde>
  401a68:	eb 1f                	jmp    401a89 <rio_readlineb+0xec>
  401a6a:	44 89 e8             	mov    %r13d,%eax
  401a6d:	83 7c 24 0c 00       	cmpl   $0x0,0xc(%rsp)
  401a72:	75 1e                	jne    401a92 <rio_readlineb+0xf5>
  401a74:	83 f8 01             	cmp    $0x1,%eax
  401a77:	75 10                	jne    401a89 <rio_readlineb+0xec>
  401a79:	eb 20                	jmp    401a9b <rio_readlineb+0xfe>
  401a7b:	41 83 c5 01          	add    $0x1,%r13d
  401a7f:	49 63 c5             	movslq %r13d,%rax
  401a82:	48 3b 44 24 18       	cmp    0x18(%rsp),%rax
  401a87:	72 83                	jb     401a0c <rio_readlineb+0x6f>
  401a89:	41 c6 06 00          	movb   $0x0,(%r14)
  401a8d:	49 63 c5             	movslq %r13d,%rax
  401a90:	eb 0e                	jmp    401aa0 <rio_readlineb+0x103>
  401a92:	48 c7 c0 ff ff ff ff 	mov    $0xffffffffffffffff,%rax
  401a99:	eb 05                	jmp    401aa0 <rio_readlineb+0x103>
  401a9b:	b8 00 00 00 00       	mov    $0x0,%eax
  401aa0:	48 8b 4c 24 28       	mov    0x28(%rsp),%rcx
  401aa5:	64 48 33 0c 25 28 00 	xor    %fs:0x28,%rcx
  401aac:	00 00 
  401aae:	74 1e                	je     401ace <rio_readlineb+0x131>
  401ab0:	eb 17                	jmp    401ac9 <rio_readlineb+0x12c>
  401ab2:	48 c7 c0 ff ff ff ff 	mov    $0xffffffffffffffff,%rax
  401ab9:	eb 05                	jmp    401ac0 <rio_readlineb+0x123>
  401abb:	b8 00 00 00 00       	mov    $0x0,%eax
  401ac0:	89 44 24 0c          	mov    %eax,0xc(%rsp)
  401ac4:	44 89 e8             	mov    %r13d,%eax
  401ac7:	eb a4                	jmp    401a6d <rio_readlineb+0xd0>
  401ac9:	e8 12 f1 ff ff       	callq  400be0 <__stack_chk_fail@plt>
  401ace:	48 83 c4 38          	add    $0x38,%rsp
  401ad2:	5b                   	pop    %rbx
  401ad3:	5d                   	pop    %rbp
  401ad4:	41 5c                	pop    %r12
  401ad6:	41 5d                	pop    %r13
  401ad8:	41 5e                	pop    %r14
  401ada:	41 5f                	pop    %r15
  401adc:	c3                   	retq   

0000000000401add <submitr>:
  401add:	41 57                	push   %r15
  401adf:	41 56                	push   %r14
  401ae1:	41 55                	push   %r13
  401ae3:	41 54                	push   %r12
  401ae5:	55                   	push   %rbp
  401ae6:	53                   	push   %rbx
  401ae7:	48 81 ec 58 a0 00 00 	sub    $0xa058,%rsp
  401aee:	48 89 fd             	mov    %rdi,%rbp
  401af1:	41 89 f5             	mov    %esi,%r13d
  401af4:	48 89 14 24          	mov    %rdx,(%rsp)
  401af8:	48 89 4c 24 08       	mov    %rcx,0x8(%rsp)
  401afd:	4d 89 c7             	mov    %r8,%r15
  401b00:	4c 89 cb             	mov    %r9,%rbx
  401b03:	4c 8b b4 24 90 a0 00 	mov    0xa090(%rsp),%r14
  401b0a:	00 
  401b0b:	64 48 8b 04 25 28 00 	mov    %fs:0x28,%rax
  401b12:	00 00 
  401b14:	48 89 84 24 48 a0 00 	mov    %rax,0xa048(%rsp)
  401b1b:	00 
  401b1c:	31 c0                	xor    %eax,%eax
  401b1e:	c7 44 24 1c 00 00 00 	movl   $0x0,0x1c(%rsp)
  401b25:	00 
  401b26:	ba 00 00 00 00       	mov    $0x0,%edx
  401b2b:	be 01 00 00 00       	mov    $0x1,%esi
  401b30:	bf 02 00 00 00       	mov    $0x2,%edi
  401b35:	e8 16 f2 ff ff       	callq  400d50 <socket@plt>
  401b3a:	41 89 c4             	mov    %eax,%r12d
  401b3d:	85 c0                	test   %eax,%eax
  401b3f:	79 50                	jns    401b91 <submitr+0xb4>
  401b41:	48 b8 45 72 72 6f 72 	movabs $0x43203a726f727245,%rax
  401b48:	3a 20 43 
  401b4b:	49 89 06             	mov    %rax,(%r14)
  401b4e:	48 b8 6c 69 65 6e 74 	movabs $0x6e7520746e65696c,%rax
  401b55:	20 75 6e 
  401b58:	49 89 46 08          	mov    %rax,0x8(%r14)
  401b5c:	48 b8 61 62 6c 65 20 	movabs $0x206f7420656c6261,%rax
  401b63:	74 6f 20 
  401b66:	49 89 46 10          	mov    %rax,0x10(%r14)
  401b6a:	48 b8 63 72 65 61 74 	movabs $0x7320657461657263,%rax
  401b71:	65 20 73 
  401b74:	49 89 46 18          	mov    %rax,0x18(%r14)
  401b78:	41 c7 46 20 6f 63 6b 	movl   $0x656b636f,0x20(%r14)
  401b7f:	65 
  401b80:	66 41 c7 46 24 74 00 	movw   $0x74,0x24(%r14)
  401b87:	b8 ff ff ff ff       	mov    $0xffffffff,%eax
  401b8c:	e9 19 06 00 00       	jmpq   4021aa <submitr+0x6cd>
  401b91:	48 89 ef             	mov    %rbp,%rdi
  401b94:	e8 b7 f0 ff ff       	callq  400c50 <gethostbyname@plt>
  401b99:	48 85 c0             	test   %rax,%rax
  401b9c:	75 6b                	jne    401c09 <submitr+0x12c>
  401b9e:	48 b8 45 72 72 6f 72 	movabs $0x44203a726f727245,%rax
  401ba5:	3a 20 44 
  401ba8:	49 89 06             	mov    %rax,(%r14)
  401bab:	48 b8 4e 53 20 69 73 	movabs $0x6e7520736920534e,%rax
  401bb2:	20 75 6e 
  401bb5:	49 89 46 08          	mov    %rax,0x8(%r14)
  401bb9:	48 b8 61 62 6c 65 20 	movabs $0x206f7420656c6261,%rax
  401bc0:	74 6f 20 
  401bc3:	49 89 46 10          	mov    %rax,0x10(%r14)
  401bc7:	48 b8 72 65 73 6f 6c 	movabs $0x2065766c6f736572,%rax
  401bce:	76 65 20 
  401bd1:	49 89 46 18          	mov    %rax,0x18(%r14)
  401bd5:	48 b8 73 65 72 76 65 	movabs $0x6120726576726573,%rax
  401bdc:	72 20 61 
  401bdf:	49 89 46 20          	mov    %rax,0x20(%r14)
  401be3:	41 c7 46 28 64 64 72 	movl   $0x65726464,0x28(%r14)
  401bea:	65 
  401beb:	66 41 c7 46 2c 73 73 	movw   $0x7373,0x2c(%r14)
  401bf2:	41 c6 46 2e 00       	movb   $0x0,0x2e(%r14)
  401bf7:	44 89 e7             	mov    %r12d,%edi
  401bfa:	e8 01 f0 ff ff       	callq  400c00 <close@plt>
  401bff:	b8 ff ff ff ff       	mov    $0xffffffff,%eax
  401c04:	e9 a1 05 00 00       	jmpq   4021aa <submitr+0x6cd>
  401c09:	48 c7 44 24 20 00 00 	movq   $0x0,0x20(%rsp)
  401c10:	00 00 
  401c12:	48 c7 44 24 28 00 00 	movq   $0x0,0x28(%rsp)
  401c19:	00 00 
  401c1b:	66 c7 44 24 20 02 00 	movw   $0x2,0x20(%rsp)
  401c22:	48 63 50 14          	movslq 0x14(%rax),%rdx
  401c26:	48 8b 40 18          	mov    0x18(%rax),%rax
  401c2a:	48 8d 7c 24 24       	lea    0x24(%rsp),%rdi
  401c2f:	b9 0c 00 00 00       	mov    $0xc,%ecx
  401c34:	48 8b 30             	mov    (%rax),%rsi
  401c37:	e8 24 f0 ff ff       	callq  400c60 <__memmove_chk@plt>
  401c3c:	66 41 c1 cd 08       	ror    $0x8,%r13w
  401c41:	66 44 89 6c 24 22    	mov    %r13w,0x22(%rsp)
  401c47:	ba 10 00 00 00       	mov    $0x10,%edx
  401c4c:	48 8d 74 24 20       	lea    0x20(%rsp),%rsi
  401c51:	44 89 e7             	mov    %r12d,%edi
  401c54:	e8 a7 f0 ff ff       	callq  400d00 <connect@plt>
  401c59:	85 c0                	test   %eax,%eax
  401c5b:	79 5d                	jns    401cba <submitr+0x1dd>
  401c5d:	48 b8 45 72 72 6f 72 	movabs $0x55203a726f727245,%rax
  401c64:	3a 20 55 
  401c67:	49 89 06             	mov    %rax,(%r14)
  401c6a:	48 b8 6e 61 62 6c 65 	movabs $0x6f7420656c62616e,%rax
  401c71:	20 74 6f 
  401c74:	49 89 46 08          	mov    %rax,0x8(%r14)
  401c78:	48 b8 20 63 6f 6e 6e 	movabs $0x7463656e6e6f6320,%rax
  401c7f:	65 63 74 
  401c82:	49 89 46 10          	mov    %rax,0x10(%r14)
  401c86:	48 b8 20 74 6f 20 74 	movabs $0x20656874206f7420,%rax
  401c8d:	68 65 20 
  401c90:	49 89 46 18          	mov    %rax,0x18(%r14)
  401c94:	41 c7 46 20 73 65 72 	movl   $0x76726573,0x20(%r14)
  401c9b:	76 
  401c9c:	66 41 c7 46 24 65 72 	movw   $0x7265,0x24(%r14)
  401ca3:	41 c6 46 26 00       	movb   $0x0,0x26(%r14)
  401ca8:	44 89 e7             	mov    %r12d,%edi
  401cab:	e8 50 ef ff ff       	callq  400c00 <close@plt>
  401cb0:	b8 ff ff ff ff       	mov    $0xffffffff,%eax
  401cb5:	e9 f0 04 00 00       	jmpq   4021aa <submitr+0x6cd>
  401cba:	49 c7 c0 ff ff ff ff 	mov    $0xffffffffffffffff,%r8
  401cc1:	48 89 df             	mov    %rbx,%rdi
  401cc4:	b8 00 00 00 00       	mov    $0x0,%eax
  401cc9:	4c 89 c1             	mov    %r8,%rcx
  401ccc:	f2 ae                	repnz scas %es:(%rdi),%al
  401cce:	48 f7 d1             	not    %rcx
  401cd1:	48 89 ce             	mov    %rcx,%rsi
  401cd4:	48 8b 3c 24          	mov    (%rsp),%rdi
  401cd8:	4c 89 c1             	mov    %r8,%rcx
  401cdb:	f2 ae                	repnz scas %es:(%rdi),%al
  401cdd:	49 89 c9             	mov    %rcx,%r9
  401ce0:	48 8b 7c 24 08       	mov    0x8(%rsp),%rdi
  401ce5:	4c 89 c1             	mov    %r8,%rcx
  401ce8:	f2 ae                	repnz scas %es:(%rdi),%al
  401cea:	48 f7 d1             	not    %rcx
  401ced:	48 89 ca             	mov    %rcx,%rdx
  401cf0:	4c 89 ff             	mov    %r15,%rdi
  401cf3:	4c 89 c1             	mov    %r8,%rcx
  401cf6:	f2 ae                	repnz scas %es:(%rdi),%al
  401cf8:	4c 29 ca             	sub    %r9,%rdx
  401cfb:	48 29 ca             	sub    %rcx,%rdx
  401cfe:	48 8d 44 76 fd       	lea    -0x3(%rsi,%rsi,2),%rax
  401d03:	48 8d 44 02 7b       	lea    0x7b(%rdx,%rax,1),%rax
  401d08:	48 3d 00 20 00 00    	cmp    $0x2000,%rax
  401d0e:	76 73                	jbe    401d83 <submitr+0x2a6>
  401d10:	48 b8 45 72 72 6f 72 	movabs $0x52203a726f727245,%rax
  401d17:	3a 20 52 
  401d1a:	49 89 06             	mov    %rax,(%r14)
  401d1d:	48 b8 65 73 75 6c 74 	movabs $0x747320746c757365,%rax
  401d24:	20 73 74 
  401d27:	49 89 46 08          	mov    %rax,0x8(%r14)
  401d2b:	48 b8 72 69 6e 67 20 	movabs $0x6f6f7420676e6972,%rax
  401d32:	74 6f 6f 
  401d35:	49 89 46 10          	mov    %rax,0x10(%r14)
  401d39:	48 b8 20 6c 61 72 67 	movabs $0x202e656772616c20,%rax
  401d40:	65 2e 20 
  401d43:	49 89 46 18          	mov    %rax,0x18(%r14)
  401d47:	48 b8 49 6e 63 72 65 	movabs $0x6573616572636e49,%rax
  401d4e:	61 73 65 
  401d51:	49 89 46 20          	mov    %rax,0x20(%r14)
  401d55:	48 b8 20 53 55 42 4d 	movabs $0x5254494d42555320,%rax
  401d5c:	49 54 52 
  401d5f:	49 89 46 28          	mov    %rax,0x28(%r14)
  401d63:	48 b8 5f 4d 41 58 42 	movabs $0x46554258414d5f,%rax
  401d6a:	55 46 00 
  401d6d:	49 89 46 30          	mov    %rax,0x30(%r14)
  401d71:	44 89 e7             	mov    %r12d,%edi
  401d74:	e8 87 ee ff ff       	callq  400c00 <close@plt>
  401d79:	b8 ff ff ff ff       	mov    $0xffffffff,%eax
  401d7e:	e9 27 04 00 00       	jmpq   4021aa <submitr+0x6cd>
  401d83:	48 8d 94 24 40 40 00 	lea    0x4040(%rsp),%rdx
  401d8a:	00 
  401d8b:	b9 00 04 00 00       	mov    $0x400,%ecx
  401d90:	b8 00 00 00 00       	mov    $0x0,%eax
  401d95:	48 89 d7             	mov    %rdx,%rdi
  401d98:	f3 48 ab             	rep stos %rax,%es:(%rdi)
  401d9b:	48 89 df             	mov    %rbx,%rdi
  401d9e:	48 c7 c1 ff ff ff ff 	mov    $0xffffffffffffffff,%rcx
  401da5:	f2 ae                	repnz scas %es:(%rdi),%al
  401da7:	48 89 c8             	mov    %rcx,%rax
  401daa:	48 f7 d0             	not    %rax
  401dad:	48 83 e8 01          	sub    $0x1,%rax
  401db1:	85 c0                	test   %eax,%eax
  401db3:	0f 84 9a 04 00 00    	je     402253 <submitr+0x776>
  401db9:	83 e8 01             	sub    $0x1,%eax
  401dbc:	4c 8d 6c 03 01       	lea    0x1(%rbx,%rax,1),%r13
  401dc1:	48 89 d5             	mov    %rdx,%rbp
  401dc4:	44 0f b6 03          	movzbl (%rbx),%r8d
  401dc8:	41 80 f8 5f          	cmp    $0x5f,%r8b
  401dcc:	74 29                	je     401df7 <submitr+0x31a>
  401dce:	41 80 f8 2a          	cmp    $0x2a,%r8b
  401dd2:	0f 94 c2             	sete   %dl
  401dd5:	41 8d 40 d3          	lea    -0x2d(%r8),%eax
  401dd9:	3c 01                	cmp    $0x1,%al
  401ddb:	0f 96 c0             	setbe  %al
  401dde:	08 c2                	or     %al,%dl
  401de0:	75 15                	jne    401df7 <submitr+0x31a>
  401de2:	41 8d 40 d0          	lea    -0x30(%r8),%eax
  401de6:	3c 09                	cmp    $0x9,%al
  401de8:	76 0d                	jbe    401df7 <submitr+0x31a>
  401dea:	44 89 c0             	mov    %r8d,%eax
  401ded:	83 e0 df             	and    $0xffffffdf,%eax
  401df0:	83 e8 41             	sub    $0x41,%eax
  401df3:	3c 19                	cmp    $0x19,%al
  401df5:	77 0a                	ja     401e01 <submitr+0x324>
  401df7:	44 88 45 00          	mov    %r8b,0x0(%rbp)
  401dfb:	48 8d 6d 01          	lea    0x1(%rbp),%rbp
  401dff:	eb 6c                	jmp    401e6d <submitr+0x390>
  401e01:	41 80 f8 20          	cmp    $0x20,%r8b
  401e05:	75 0a                	jne    401e11 <submitr+0x334>
  401e07:	c6 45 00 2b          	movb   $0x2b,0x0(%rbp)
  401e0b:	48 8d 6d 01          	lea    0x1(%rbp),%rbp
  401e0f:	eb 5c                	jmp    401e6d <submitr+0x390>
  401e11:	41 8d 40 e0          	lea    -0x20(%r8),%eax
  401e15:	3c 5f                	cmp    $0x5f,%al
  401e17:	76 0a                	jbe    401e23 <submitr+0x346>
  401e19:	41 80 f8 09          	cmp    $0x9,%r8b
  401e1d:	0f 85 a3 03 00 00    	jne    4021c6 <submitr+0x6e9>
  401e23:	45 0f b6 c0          	movzbl %r8b,%r8d
  401e27:	b9 90 2b 40 00       	mov    $0x402b90,%ecx
  401e2c:	ba 08 00 00 00       	mov    $0x8,%edx
  401e31:	be 01 00 00 00       	mov    $0x1,%esi
  401e36:	48 8d bc 24 40 80 00 	lea    0x8040(%rsp),%rdi
  401e3d:	00 
  401e3e:	b8 00 00 00 00       	mov    $0x0,%eax
  401e43:	e8 f8 ee ff ff       	callq  400d40 <__sprintf_chk@plt>
  401e48:	0f b6 84 24 40 80 00 	movzbl 0x8040(%rsp),%eax
  401e4f:	00 
  401e50:	88 45 00             	mov    %al,0x0(%rbp)
  401e53:	0f b6 84 24 41 80 00 	movzbl 0x8041(%rsp),%eax
  401e5a:	00 
  401e5b:	88 45 01             	mov    %al,0x1(%rbp)
  401e5e:	0f b6 84 24 42 80 00 	movzbl 0x8042(%rsp),%eax
  401e65:	00 
  401e66:	88 45 02             	mov    %al,0x2(%rbp)
  401e69:	48 8d 6d 03          	lea    0x3(%rbp),%rbp
  401e6d:	48 83 c3 01          	add    $0x1,%rbx
  401e71:	4c 39 eb             	cmp    %r13,%rbx
  401e74:	0f 85 4a ff ff ff    	jne    401dc4 <submitr+0x2e7>
  401e7a:	e9 d4 03 00 00       	jmpq   402253 <submitr+0x776>
  401e7f:	48 89 da             	mov    %rbx,%rdx
  401e82:	48 89 ee             	mov    %rbp,%rsi
  401e85:	44 89 e7             	mov    %r12d,%edi
  401e88:	e8 43 ed ff ff       	callq  400bd0 <write@plt>
  401e8d:	48 85 c0             	test   %rax,%rax
  401e90:	7f 0f                	jg     401ea1 <submitr+0x3c4>
  401e92:	e8 09 ed ff ff       	callq  400ba0 <__errno_location@plt>
  401e97:	83 38 04             	cmpl   $0x4,(%rax)
  401e9a:	75 12                	jne    401eae <submitr+0x3d1>
  401e9c:	b8 00 00 00 00       	mov    $0x0,%eax
  401ea1:	48 01 c5             	add    %rax,%rbp
  401ea4:	48 29 c3             	sub    %rax,%rbx
  401ea7:	75 d6                	jne    401e7f <submitr+0x3a2>
  401ea9:	4d 85 ed             	test   %r13,%r13
  401eac:	79 5f                	jns    401f0d <submitr+0x430>
  401eae:	48 b8 45 72 72 6f 72 	movabs $0x43203a726f727245,%rax
  401eb5:	3a 20 43 
  401eb8:	49 89 06             	mov    %rax,(%r14)
  401ebb:	48 b8 6c 69 65 6e 74 	movabs $0x6e7520746e65696c,%rax
  401ec2:	20 75 6e 
  401ec5:	49 89 46 08          	mov    %rax,0x8(%r14)
  401ec9:	48 b8 61 62 6c 65 20 	movabs $0x206f7420656c6261,%rax
  401ed0:	74 6f 20 
  401ed3:	49 89 46 10          	mov    %rax,0x10(%r14)
  401ed7:	48 b8 77 72 69 74 65 	movabs $0x6f74206574697277,%rax
  401ede:	20 74 6f 
  401ee1:	49 89 46 18          	mov    %rax,0x18(%r14)
  401ee5:	48 b8 20 74 68 65 20 	movabs $0x7265732065687420,%rax
  401eec:	73 65 72 
  401eef:	49 89 46 20          	mov    %rax,0x20(%r14)
  401ef3:	41 c7 46 28 76 65 72 	movl   $0x726576,0x28(%r14)
  401efa:	00 
  401efb:	44 89 e7             	mov    %r12d,%edi
  401efe:	e8 fd ec ff ff       	callq  400c00 <close@plt>
  401f03:	b8 ff ff ff ff       	mov    $0xffffffff,%eax
  401f08:	e9 9d 02 00 00       	jmpq   4021aa <submitr+0x6cd>
  401f0d:	44 89 64 24 30       	mov    %r12d,0x30(%rsp)
  401f12:	c7 44 24 34 00 00 00 	movl   $0x0,0x34(%rsp)
  401f19:	00 
  401f1a:	48 8d 44 24 40       	lea    0x40(%rsp),%rax
  401f1f:	48 89 44 24 38       	mov    %rax,0x38(%rsp)
  401f24:	ba 00 20 00 00       	mov    $0x2000,%edx
  401f29:	48 8d b4 24 40 20 00 	lea    0x2040(%rsp),%rsi
  401f30:	00 
  401f31:	48 8d 7c 24 30       	lea    0x30(%rsp),%rdi
  401f36:	e8 62 fa ff ff       	callq  40199d <rio_readlineb>
  401f3b:	48 85 c0             	test   %rax,%rax
  401f3e:	7f 74                	jg     401fb4 <submitr+0x4d7>
  401f40:	48 b8 45 72 72 6f 72 	movabs $0x43203a726f727245,%rax
  401f47:	3a 20 43 
  401f4a:	49 89 06             	mov    %rax,(%r14)
  401f4d:	48 b8 6c 69 65 6e 74 	movabs $0x6e7520746e65696c,%rax
  401f54:	20 75 6e 
  401f57:	49 89 46 08          	mov    %rax,0x8(%r14)
  401f5b:	48 b8 61 62 6c 65 20 	movabs $0x206f7420656c6261,%rax
  401f62:	74 6f 20 
  401f65:	49 89 46 10          	mov    %rax,0x10(%r14)
  401f69:	48 b8 72 65 61 64 20 	movabs $0x7269662064616572,%rax
  401f70:	66 69 72 
  401f73:	49 89 46 18          	mov    %rax,0x18(%r14)
  401f77:	48 b8 73 74 20 68 65 	movabs $0x6564616568207473,%rax
  401f7e:	61 64 65 
  401f81:	49 89 46 20          	mov    %rax,0x20(%r14)
  401f85:	48 b8 72 20 66 72 6f 	movabs $0x73206d6f72662072,%rax
  401f8c:	6d 20 73 
  401f8f:	49 89 46 28          	mov    %rax,0x28(%r14)
  401f93:	41 c7 46 30 65 72 76 	movl   $0x65767265,0x30(%r14)
  401f9a:	65 
  401f9b:	66 41 c7 46 34 72 00 	movw   $0x72,0x34(%r14)
  401fa2:	44 89 e7             	mov    %r12d,%edi
  401fa5:	e8 56 ec ff ff       	callq  400c00 <close@plt>
  401faa:	b8 ff ff ff ff       	mov    $0xffffffff,%eax
  401faf:	e9 f6 01 00 00       	jmpq   4021aa <submitr+0x6cd>
  401fb4:	4c 8d 84 24 40 80 00 	lea    0x8040(%rsp),%r8
  401fbb:	00 
  401fbc:	48 8d 4c 24 1c       	lea    0x1c(%rsp),%rcx
  401fc1:	48 8d 94 24 40 60 00 	lea    0x6040(%rsp),%rdx
  401fc8:	00 
  401fc9:	be 97 2b 40 00       	mov    $0x402b97,%esi
  401fce:	48 8d bc 24 40 20 00 	lea    0x2040(%rsp),%rdi
  401fd5:	00 
  401fd6:	b8 00 00 00 00       	mov    $0x0,%eax
  401fdb:	e8 d0 ec ff ff       	callq  400cb0 <__isoc99_sscanf@plt>
  401fe0:	44 8b 44 24 1c       	mov    0x1c(%rsp),%r8d
  401fe5:	41 81 f8 c8 00 00 00 	cmp    $0xc8,%r8d
  401fec:	0f 84 be 00 00 00    	je     4020b0 <submitr+0x5d3>
  401ff2:	4c 8d 8c 24 40 80 00 	lea    0x8040(%rsp),%r9
  401ff9:	00 
  401ffa:	b9 e8 2a 40 00       	mov    $0x402ae8,%ecx
  401fff:	48 c7 c2 ff ff ff ff 	mov    $0xffffffffffffffff,%rdx
  402006:	be 01 00 00 00       	mov    $0x1,%esi
  40200b:	4c 89 f7             	mov    %r14,%rdi
  40200e:	b8 00 00 00 00       	mov    $0x0,%eax
  402013:	e8 28 ed ff ff       	callq  400d40 <__sprintf_chk@plt>
  402018:	44 89 e7             	mov    %r12d,%edi
  40201b:	e8 e0 eb ff ff       	callq  400c00 <close@plt>
  402020:	b8 ff ff ff ff       	mov    $0xffffffff,%eax
  402025:	e9 80 01 00 00       	jmpq   4021aa <submitr+0x6cd>
  40202a:	ba 00 20 00 00       	mov    $0x2000,%edx
  40202f:	48 8d b4 24 40 20 00 	lea    0x2040(%rsp),%rsi
  402036:	00 
  402037:	48 8d 7c 24 30       	lea    0x30(%rsp),%rdi
  40203c:	e8 5c f9 ff ff       	callq  40199d <rio_readlineb>
  402041:	48 85 c0             	test   %rax,%rax
  402044:	7f 6a                	jg     4020b0 <submitr+0x5d3>
  402046:	48 b8 45 72 72 6f 72 	movabs $0x43203a726f727245,%rax
  40204d:	3a 20 43 
  402050:	49 89 06             	mov    %rax,(%r14)
  402053:	48 b8 6c 69 65 6e 74 	movabs $0x6e7520746e65696c,%rax
  40205a:	20 75 6e 
  40205d:	49 89 46 08          	mov    %rax,0x8(%r14)
  402061:	48 b8 61 62 6c 65 20 	movabs $0x206f7420656c6261,%rax
  402068:	74 6f 20 
  40206b:	49 89 46 10          	mov    %rax,0x10(%r14)
  40206f:	48 b8 72 65 61 64 20 	movabs $0x6165682064616572,%rax
  402076:	68 65 61 
  402079:	49 89 46 18          	mov    %rax,0x18(%r14)
  40207d:	48 b8 64 65 72 73 20 	movabs $0x6f72662073726564,%rax
  402084:	66 72 6f 
  402087:	49 89 46 20          	mov    %rax,0x20(%r14)
  40208b:	48 b8 6d 20 73 65 72 	movabs $0x726576726573206d,%rax
  402092:	76 65 72 
  402095:	49 89 46 28          	mov    %rax,0x28(%r14)
  402099:	41 c6 46 30 00       	movb   $0x0,0x30(%r14)
  40209e:	44 89 e7             	mov    %r12d,%edi
  4020a1:	e8 5a eb ff ff       	callq  400c00 <close@plt>
  4020a6:	b8 ff ff ff ff       	mov    $0xffffffff,%eax
  4020ab:	e9 fa 00 00 00       	jmpq   4021aa <submitr+0x6cd>
  4020b0:	80 bc 24 40 20 00 00 	cmpb   $0xd,0x2040(%rsp)
  4020b7:	0d 
  4020b8:	0f 85 6c ff ff ff    	jne    40202a <submitr+0x54d>
  4020be:	80 bc 24 41 20 00 00 	cmpb   $0xa,0x2041(%rsp)
  4020c5:	0a 
  4020c6:	0f 85 5e ff ff ff    	jne    40202a <submitr+0x54d>
  4020cc:	80 bc 24 42 20 00 00 	cmpb   $0x0,0x2042(%rsp)
  4020d3:	00 
  4020d4:	0f 85 50 ff ff ff    	jne    40202a <submitr+0x54d>
  4020da:	ba 00 20 00 00       	mov    $0x2000,%edx
  4020df:	48 8d b4 24 40 20 00 	lea    0x2040(%rsp),%rsi
  4020e6:	00 
  4020e7:	48 8d 7c 24 30       	lea    0x30(%rsp),%rdi
  4020ec:	e8 ac f8 ff ff       	callq  40199d <rio_readlineb>
  4020f1:	48 85 c0             	test   %rax,%rax
  4020f4:	7f 70                	jg     402166 <submitr+0x689>
  4020f6:	48 b8 45 72 72 6f 72 	movabs $0x43203a726f727245,%rax
  4020fd:	3a 20 43 
  402100:	49 89 06             	mov    %rax,(%r14)
  402103:	48 b8 6c 69 65 6e 74 	movabs $0x6e7520746e65696c,%rax
  40210a:	20 75 6e 
  40210d:	49 89 46 08          	mov    %rax,0x8(%r14)
  402111:	48 b8 61 62 6c 65 20 	movabs $0x206f7420656c6261,%rax
  402118:	74 6f 20 
  40211b:	49 89 46 10          	mov    %rax,0x10(%r14)
  40211f:	48 b8 72 65 61 64 20 	movabs $0x6174732064616572,%rax
  402126:	73 74 61 
  402129:	49 89 46 18          	mov    %rax,0x18(%r14)
  40212d:	48 b8 74 75 73 20 6d 	movabs $0x7373656d20737574,%rax
  402134:	65 73 73 
  402137:	49 89 46 20          	mov    %rax,0x20(%r14)
  40213b:	48 b8 61 67 65 20 66 	movabs $0x6d6f726620656761,%rax
  402142:	72 6f 6d 
  402145:	49 89 46 28          	mov    %rax,0x28(%r14)
  402149:	48 b8 20 73 65 72 76 	movabs $0x72657672657320,%rax
  402150:	65 72 00 
  402153:	49 89 46 30          	mov    %rax,0x30(%r14)
  402157:	44 89 e7             	mov    %r12d,%edi
  40215a:	e8 a1 ea ff ff       	callq  400c00 <close@plt>
  40215f:	b8 ff ff ff ff       	mov    $0xffffffff,%eax
  402164:	eb 44                	jmp    4021aa <submitr+0x6cd>
  402166:	48 8d b4 24 40 20 00 	lea    0x2040(%rsp),%rsi
  40216d:	00 
  40216e:	4c 89 f7             	mov    %r14,%rdi
  402171:	e8 3a ea ff ff       	callq  400bb0 <strcpy@plt>
  402176:	44 89 e7             	mov    %r12d,%edi
  402179:	e8 82 ea ff ff       	callq  400c00 <close@plt>
  40217e:	41 0f b6 16          	movzbl (%r14),%edx
  402182:	b8 4f 00 00 00       	mov    $0x4f,%eax
  402187:	29 d0                	sub    %edx,%eax
  402189:	75 15                	jne    4021a0 <submitr+0x6c3>
  40218b:	41 0f b6 56 01       	movzbl 0x1(%r14),%edx
  402190:	b8 4b 00 00 00       	mov    $0x4b,%eax
  402195:	29 d0                	sub    %edx,%eax
  402197:	75 07                	jne    4021a0 <submitr+0x6c3>
  402199:	41 0f b6 46 02       	movzbl 0x2(%r14),%eax
  40219e:	f7 d8                	neg    %eax
  4021a0:	85 c0                	test   %eax,%eax
  4021a2:	0f 95 c0             	setne  %al
  4021a5:	0f b6 c0             	movzbl %al,%eax
  4021a8:	f7 d8                	neg    %eax
  4021aa:	48 8b 8c 24 48 a0 00 	mov    0xa048(%rsp),%rcx
  4021b1:	00 
  4021b2:	64 48 33 0c 25 28 00 	xor    %fs:0x28,%rcx
  4021b9:	00 00 
  4021bb:	0f 84 07 01 00 00    	je     4022c8 <submitr+0x7eb>
  4021c1:	e9 fd 00 00 00       	jmpq   4022c3 <submitr+0x7e6>
  4021c6:	48 b8 45 72 72 6f 72 	movabs $0x52203a726f727245,%rax
  4021cd:	3a 20 52 
  4021d0:	49 89 06             	mov    %rax,(%r14)
  4021d3:	48 b8 65 73 75 6c 74 	movabs $0x747320746c757365,%rax
  4021da:	20 73 74 
  4021dd:	49 89 46 08          	mov    %rax,0x8(%r14)
  4021e1:	48 b8 72 69 6e 67 20 	movabs $0x6e6f6320676e6972,%rax
  4021e8:	63 6f 6e 
  4021eb:	49 89 46 10          	mov    %rax,0x10(%r14)
  4021ef:	48 b8 74 61 69 6e 73 	movabs $0x6e6120736e696174,%rax
  4021f6:	20 61 6e 
  4021f9:	49 89 46 18          	mov    %rax,0x18(%r14)
  4021fd:	48 b8 20 69 6c 6c 65 	movabs $0x6c6167656c6c6920,%rax
  402204:	67 61 6c 
  402207:	49 89 46 20          	mov    %rax,0x20(%r14)
  40220b:	48 b8 20 6f 72 20 75 	movabs $0x72706e7520726f20,%rax
  402212:	6e 70 72 
  402215:	49 89 46 28          	mov    %rax,0x28(%r14)
  402219:	48 b8 69 6e 74 61 62 	movabs $0x20656c6261746e69,%rax
  402220:	6c 65 20 
  402223:	49 89 46 30          	mov    %rax,0x30(%r14)
  402227:	48 b8 63 68 61 72 61 	movabs $0x6574636172616863,%rax
  40222e:	63 74 65 
  402231:	49 89 46 38          	mov    %rax,0x38(%r14)
  402235:	66 41 c7 46 40 72 2e 	movw   $0x2e72,0x40(%r14)
  40223c:	41 c6 46 42 00       	movb   $0x0,0x42(%r14)
  402241:	44 89 e7             	mov    %r12d,%edi
  402244:	e8 b7 e9 ff ff       	callq  400c00 <close@plt>
  402249:	b8 ff ff ff ff       	mov    $0xffffffff,%eax
  40224e:	e9 57 ff ff ff       	jmpq   4021aa <submitr+0x6cd>
  402253:	48 8d 84 24 40 40 00 	lea    0x4040(%rsp),%rax
  40225a:	00 
  40225b:	50                   	push   %rax
  40225c:	41 57                	push   %r15
  40225e:	4c 8b 4c 24 18       	mov    0x18(%rsp),%r9
  402263:	4c 8b 44 24 10       	mov    0x10(%rsp),%r8
  402268:	b9 18 2b 40 00       	mov    $0x402b18,%ecx
  40226d:	ba 00 20 00 00       	mov    $0x2000,%edx
  402272:	be 01 00 00 00       	mov    $0x1,%esi
  402277:	48 8d bc 24 50 20 00 	lea    0x2050(%rsp),%rdi
  40227e:	00 
  40227f:	b8 00 00 00 00       	mov    $0x0,%eax
  402284:	e8 b7 ea ff ff       	callq  400d40 <__sprintf_chk@plt>
  402289:	48 8d bc 24 50 20 00 	lea    0x2050(%rsp),%rdi
  402290:	00 
  402291:	b8 00 00 00 00       	mov    $0x0,%eax
  402296:	48 c7 c1 ff ff ff ff 	mov    $0xffffffffffffffff,%rcx
  40229d:	f2 ae                	repnz scas %es:(%rdi),%al
  40229f:	48 f7 d1             	not    %rcx
  4022a2:	4c 8d 69 ff          	lea    -0x1(%rcx),%r13
  4022a6:	48 83 c4 10          	add    $0x10,%rsp
  4022aa:	4c 89 eb             	mov    %r13,%rbx
  4022ad:	48 8d ac 24 40 20 00 	lea    0x2040(%rsp),%rbp
  4022b4:	00 
  4022b5:	4d 85 ed             	test   %r13,%r13
  4022b8:	0f 85 c1 fb ff ff    	jne    401e7f <submitr+0x3a2>
  4022be:	e9 4a fc ff ff       	jmpq   401f0d <submitr+0x430>
  4022c3:	e8 18 e9 ff ff       	callq  400be0 <__stack_chk_fail@plt>
  4022c8:	48 81 c4 58 a0 00 00 	add    $0xa058,%rsp
  4022cf:	5b                   	pop    %rbx
  4022d0:	5d                   	pop    %rbp
  4022d1:	41 5c                	pop    %r12
  4022d3:	41 5d                	pop    %r13
  4022d5:	41 5e                	pop    %r14
  4022d7:	41 5f                	pop    %r15
  4022d9:	c3                   	retq   

00000000004022da <init_timeout>:
  4022da:	85 ff                	test   %edi,%edi
  4022dc:	74 22                	je     402300 <init_timeout+0x26>
  4022de:	53                   	push   %rbx
  4022df:	89 fb                	mov    %edi,%ebx
  4022e1:	be 6f 19 40 00       	mov    $0x40196f,%esi
  4022e6:	bf 0e 00 00 00       	mov    $0xe,%edi
  4022eb:	e8 50 e9 ff ff       	callq  400c40 <signal@plt>
  4022f0:	85 db                	test   %ebx,%ebx
  4022f2:	bf 00 00 00 00       	mov    $0x0,%edi
  4022f7:	0f 49 fb             	cmovns %ebx,%edi
  4022fa:	e8 f1 e8 ff ff       	callq  400bf0 <alarm@plt>
  4022ff:	5b                   	pop    %rbx
  402300:	f3 c3                	repz retq 

0000000000402302 <init_driver>:
  402302:	55                   	push   %rbp
  402303:	53                   	push   %rbx
  402304:	48 83 ec 28          	sub    $0x28,%rsp
  402308:	48 89 fd             	mov    %rdi,%rbp
  40230b:	64 48 8b 04 25 28 00 	mov    %fs:0x28,%rax
  402312:	00 00 
  402314:	48 89 44 24 18       	mov    %rax,0x18(%rsp)
  402319:	31 c0                	xor    %eax,%eax
  40231b:	be 01 00 00 00       	mov    $0x1,%esi
  402320:	bf 0d 00 00 00       	mov    $0xd,%edi
  402325:	e8 16 e9 ff ff       	callq  400c40 <signal@plt>
  40232a:	be 01 00 00 00       	mov    $0x1,%esi
  40232f:	bf 1d 00 00 00       	mov    $0x1d,%edi
  402334:	e8 07 e9 ff ff       	callq  400c40 <signal@plt>
  402339:	be 01 00 00 00       	mov    $0x1,%esi
  40233e:	bf 1d 00 00 00       	mov    $0x1d,%edi
  402343:	e8 f8 e8 ff ff       	callq  400c40 <signal@plt>
  402348:	ba 00 00 00 00       	mov    $0x0,%edx
  40234d:	be 01 00 00 00       	mov    $0x1,%esi
  402352:	bf 02 00 00 00       	mov    $0x2,%edi
  402357:	e8 f4 e9 ff ff       	callq  400d50 <socket@plt>
  40235c:	89 c3                	mov    %eax,%ebx
  40235e:	85 c0                	test   %eax,%eax
  402360:	79 4f                	jns    4023b1 <init_driver+0xaf>
  402362:	48 b8 45 72 72 6f 72 	movabs $0x43203a726f727245,%rax
  402369:	3a 20 43 
  40236c:	48 89 45 00          	mov    %rax,0x0(%rbp)
  402370:	48 b8 6c 69 65 6e 74 	movabs $0x6e7520746e65696c,%rax
  402377:	20 75 6e 
  40237a:	48 89 45 08          	mov    %rax,0x8(%rbp)
  40237e:	48 b8 61 62 6c 65 20 	movabs $0x206f7420656c6261,%rax
  402385:	74 6f 20 
  402388:	48 89 45 10          	mov    %rax,0x10(%rbp)
  40238c:	48 b8 63 72 65 61 74 	movabs $0x7320657461657263,%rax
  402393:	65 20 73 
  402396:	48 89 45 18          	mov    %rax,0x18(%rbp)
  40239a:	c7 45 20 6f 63 6b 65 	movl   $0x656b636f,0x20(%rbp)
  4023a1:	66 c7 45 24 74 00    	movw   $0x74,0x24(%rbp)
  4023a7:	b8 ff ff ff ff       	mov    $0xffffffff,%eax
  4023ac:	e9 0a 01 00 00       	jmpq   4024bb <init_driver+0x1b9>
  4023b1:	bf a8 2b 40 00       	mov    $0x402ba8,%edi
  4023b6:	e8 95 e8 ff ff       	callq  400c50 <gethostbyname@plt>
  4023bb:	48 85 c0             	test   %rax,%rax
  4023be:	75 68                	jne    402428 <init_driver+0x126>
  4023c0:	48 b8 45 72 72 6f 72 	movabs $0x44203a726f727245,%rax
  4023c7:	3a 20 44 
  4023ca:	48 89 45 00          	mov    %rax,0x0(%rbp)
  4023ce:	48 b8 4e 53 20 69 73 	movabs $0x6e7520736920534e,%rax
  4023d5:	20 75 6e 
  4023d8:	48 89 45 08          	mov    %rax,0x8(%rbp)
  4023dc:	48 b8 61 62 6c 65 20 	movabs $0x206f7420656c6261,%rax
  4023e3:	74 6f 20 
  4023e6:	48 89 45 10          	mov    %rax,0x10(%rbp)
  4023ea:	48 b8 72 65 73 6f 6c 	movabs $0x2065766c6f736572,%rax
  4023f1:	76 65 20 
  4023f4:	48 89 45 18          	mov    %rax,0x18(%rbp)
  4023f8:	48 b8 73 65 72 76 65 	movabs $0x6120726576726573,%rax
  4023ff:	72 20 61 
  402402:	48 89 45 20          	mov    %rax,0x20(%rbp)
  402406:	c7 45 28 64 64 72 65 	movl   $0x65726464,0x28(%rbp)
  40240d:	66 c7 45 2c 73 73    	movw   $0x7373,0x2c(%rbp)
  402413:	c6 45 2e 00          	movb   $0x0,0x2e(%rbp)
  402417:	89 df                	mov    %ebx,%edi
  402419:	e8 e2 e7 ff ff       	callq  400c00 <close@plt>
  40241e:	b8 ff ff ff ff       	mov    $0xffffffff,%eax
  402423:	e9 93 00 00 00       	jmpq   4024bb <init_driver+0x1b9>
  402428:	48 c7 04 24 00 00 00 	movq   $0x0,(%rsp)
  40242f:	00 
  402430:	48 c7 44 24 08 00 00 	movq   $0x0,0x8(%rsp)
  402437:	00 00 
  402439:	66 c7 04 24 02 00    	movw   $0x2,(%rsp)
  40243f:	48 63 50 14          	movslq 0x14(%rax),%rdx
  402443:	48 8b 40 18          	mov    0x18(%rax),%rax
  402447:	48 8d 7c 24 04       	lea    0x4(%rsp),%rdi
  40244c:	b9 0c 00 00 00       	mov    $0xc,%ecx
  402451:	48 8b 30             	mov    (%rax),%rsi
  402454:	e8 07 e8 ff ff       	callq  400c60 <__memmove_chk@plt>
  402459:	66 c7 44 24 02 3b da 	movw   $0xda3b,0x2(%rsp)
  402460:	ba 10 00 00 00       	mov    $0x10,%edx
  402465:	48 89 e6             	mov    %rsp,%rsi
  402468:	89 df                	mov    %ebx,%edi
  40246a:	e8 91 e8 ff ff       	callq  400d00 <connect@plt>
  40246f:	85 c0                	test   %eax,%eax
  402471:	79 32                	jns    4024a5 <init_driver+0x1a3>
  402473:	41 b8 a8 2b 40 00    	mov    $0x402ba8,%r8d
  402479:	b9 68 2b 40 00       	mov    $0x402b68,%ecx
  40247e:	48 c7 c2 ff ff ff ff 	mov    $0xffffffffffffffff,%rdx
  402485:	be 01 00 00 00       	mov    $0x1,%esi
  40248a:	48 89 ef             	mov    %rbp,%rdi
  40248d:	b8 00 00 00 00       	mov    $0x0,%eax
  402492:	e8 a9 e8 ff ff       	callq  400d40 <__sprintf_chk@plt>
  402497:	89 df                	mov    %ebx,%edi
  402499:	e8 62 e7 ff ff       	callq  400c00 <close@plt>
  40249e:	b8 ff ff ff ff       	mov    $0xffffffff,%eax
  4024a3:	eb 16                	jmp    4024bb <init_driver+0x1b9>
  4024a5:	89 df                	mov    %ebx,%edi
  4024a7:	e8 54 e7 ff ff       	callq  400c00 <close@plt>
  4024ac:	66 c7 45 00 4f 4b    	movw   $0x4b4f,0x0(%rbp)
  4024b2:	c6 45 02 00          	movb   $0x0,0x2(%rbp)
  4024b6:	b8 00 00 00 00       	mov    $0x0,%eax
  4024bb:	48 8b 4c 24 18       	mov    0x18(%rsp),%rcx
  4024c0:	64 48 33 0c 25 28 00 	xor    %fs:0x28,%rcx
  4024c7:	00 00 
  4024c9:	74 05                	je     4024d0 <init_driver+0x1ce>
  4024cb:	e8 10 e7 ff ff       	callq  400be0 <__stack_chk_fail@plt>
  4024d0:	48 83 c4 28          	add    $0x28,%rsp
  4024d4:	5b                   	pop    %rbx
  4024d5:	5d                   	pop    %rbp
  4024d6:	c3                   	retq   

00000000004024d7 <driver_post>:
  4024d7:	53                   	push   %rbx
  4024d8:	48 89 cb             	mov    %rcx,%rbx
  4024db:	85 d2                	test   %edx,%edx
  4024dd:	74 27                	je     402506 <driver_post+0x2f>
  4024df:	48 89 f2             	mov    %rsi,%rdx
  4024e2:	be bb 2b 40 00       	mov    $0x402bbb,%esi
  4024e7:	bf 01 00 00 00       	mov    $0x1,%edi
  4024ec:	b8 00 00 00 00       	mov    $0x0,%eax
  4024f1:	e8 ca e7 ff ff       	callq  400cc0 <__printf_chk@plt>
  4024f6:	66 c7 03 4f 4b       	movw   $0x4b4f,(%rbx)
  4024fb:	c6 43 02 00          	movb   $0x0,0x2(%rbx)
  4024ff:	b8 00 00 00 00       	mov    $0x0,%eax
  402504:	eb 43                	jmp    402549 <driver_post+0x72>
  402506:	48 85 ff             	test   %rdi,%rdi
  402509:	74 30                	je     40253b <driver_post+0x64>
  40250b:	80 3f 00             	cmpb   $0x0,(%rdi)
  40250e:	74 2b                	je     40253b <driver_post+0x64>
  402510:	48 83 ec 08          	sub    $0x8,%rsp
  402514:	51                   	push   %rcx
  402515:	49 89 f1             	mov    %rsi,%r9
  402518:	41 b8 d2 2b 40 00    	mov    $0x402bd2,%r8d
  40251e:	48 89 f9             	mov    %rdi,%rcx
  402521:	ba d6 2b 40 00       	mov    $0x402bd6,%edx
  402526:	be da 3b 00 00       	mov    $0x3bda,%esi
  40252b:	bf a8 2b 40 00       	mov    $0x402ba8,%edi
  402530:	e8 a8 f5 ff ff       	callq  401add <submitr>
  402535:	48 83 c4 10          	add    $0x10,%rsp
  402539:	eb 0e                	jmp    402549 <driver_post+0x72>
  40253b:	66 c7 03 4f 4b       	movw   $0x4b4f,(%rbx)
  402540:	c6 43 02 00          	movb   $0x0,0x2(%rbx)
  402544:	b8 00 00 00 00       	mov    $0x0,%eax
  402549:	5b                   	pop    %rbx
  40254a:	c3                   	retq   
  40254b:	0f 1f 44 00 00       	nopl   0x0(%rax,%rax,1)

0000000000402550 <__libc_csu_init>:
  402550:	41 57                	push   %r15
  402552:	41 89 ff             	mov    %edi,%r15d
  402555:	41 56                	push   %r14
  402557:	49 89 f6             	mov    %rsi,%r14
  40255a:	41 55                	push   %r13
  40255c:	49 89 d5             	mov    %rdx,%r13
  40255f:	41 54                	push   %r12
  402561:	4c 8d 25 a8 18 20 00 	lea    0x2018a8(%rip),%r12        # 603e10 <__frame_dummy_init_array_entry>
  402568:	55                   	push   %rbp
  402569:	48 8d 2d a8 18 20 00 	lea    0x2018a8(%rip),%rbp        # 603e18 <__init_array_end>
  402570:	53                   	push   %rbx
  402571:	4c 29 e5             	sub    %r12,%rbp
  402574:	31 db                	xor    %ebx,%ebx
  402576:	48 c1 fd 03          	sar    $0x3,%rbp
  40257a:	48 83 ec 08          	sub    $0x8,%rsp
  40257e:	e8 cd e5 ff ff       	callq  400b50 <_init>
  402583:	48 85 ed             	test   %rbp,%rbp
  402586:	74 1e                	je     4025a6 <__libc_csu_init+0x56>
  402588:	0f 1f 84 00 00 00 00 	nopl   0x0(%rax,%rax,1)
  40258f:	00 
  402590:	4c 89 ea             	mov    %r13,%rdx
  402593:	4c 89 f6             	mov    %r14,%rsi
  402596:	44 89 ff             	mov    %r15d,%edi
  402599:	41 ff 14 dc          	callq  *(%r12,%rbx,8)
  40259d:	48 83 c3 01          	add    $0x1,%rbx
  4025a1:	48 39 eb             	cmp    %rbp,%rbx
  4025a4:	75 ea                	jne    402590 <__libc_csu_init+0x40>
  4025a6:	48 83 c4 08          	add    $0x8,%rsp
  4025aa:	5b                   	pop    %rbx
  4025ab:	5d                   	pop    %rbp
  4025ac:	41 5c                	pop    %r12
  4025ae:	41 5d                	pop    %r13
  4025b0:	41 5e                	pop    %r14
  4025b2:	41 5f                	pop    %r15
  4025b4:	c3                   	retq   
  4025b5:	66 66 2e 0f 1f 84 00 	data32 nopw %cs:0x0(%rax,%rax,1)
  4025bc:	00 00 00 00 

00000000004025c0 <__libc_csu_fini>:
  4025c0:	f3 c3                	repz retq 

Disassembly of section .fini:

00000000004025c4 <_fini>:
  4025c4:	48 83 ec 08          	sub    $0x8,%rsp
  4025c8:	48 83 c4 08          	add    $0x8,%rsp
  4025cc:	c3                   	retq   
